ccopy_reg
_reconstructor
p0
(ctextblob.classifiers
NaiveBayesClassifier
p1
c__builtin__
object
p2
Ntp3
Rp4
(dp5
S'format_kwargs'
p6
(dp7
sS'train_features'
p8
(lp9
((dp10
Vcontains(Wish)
p11
I00
sVcontains(broken)
p12
I00
sVcontains(RT)
p13
I01
sVcontains(daylight)
p14
I00
sVcontains(Human)
p15
I00
sVcontains(sachinbansal)
p16
I00
sVcontains(so)
p17
I01
sVcontains(To)
p18
I00
sVcontains(the)
p19
I00
sVcontains(Ignorant)
p20
I00
sVcontains(And)
p21
I00
sVcontains(for)
p22
I00
sVcontains(Act)
p23
I00
sVcontains(jeeturaaj)
p24
I00
sVcontains(deal)
p25
I01
sVcontains(looters)
p26
I00
sVcontains(is)
p27
I00
sVcontains(KintuChheda)
p28
I00
sVcontains(a)
p29
I00
sVcontains(about)
p30
I00
sVcontains(B\u2026)
p31
I00
sVcontains(savlachirag)
p32
I01
sVcontains(nileshshah4879)
p33
I00
sVcontains(Wow)
p34
I00
sVcontains(big)
p35
I01
sVcontains(What)
p36
I00
sVcontains(tagline)
p37
I00
sVcontains(Fool)
p38
I00
sVcontains(Flipkart)
p39
I01
sVcontains(what)
p40
I00
sVcontains(trust)
p41
I00
sVcontains(flipkartsupport)
p42
I01
sVnone\u000a
p43
tp44
a((dp45
Vcontains(Wish)
p46
I00
sVcontains(broken)
p47
I01
sVcontains(RT)
p48
I00
sVcontains(daylight)
p49
I00
sVcontains(Human)
p50
I00
sVcontains(sachinbansal)
p51
I00
sVcontains(so)
p52
I00
sVcontains(To)
p53
I00
sVcontains(the)
p54
I01
sVcontains(Ignorant)
p55
I00
sVcontains(And)
p56
I01
sVcontains(for)
p57
I00
sVcontains(Act)
p58
I00
sVcontains(jeeturaaj)
p59
I00
sVcontains(deal)
p60
I00
sVcontains(looters)
p61
I00
sVcontains(is)
p62
I00
sVcontains(KintuChheda)
p63
I00
sVcontains(a)
p64
I00
sVcontains(about)
p65
I01
sVcontains(B\u2026)
p66
I00
sVcontains(savlachirag)
p67
I00
sVcontains(nileshshah4879)
p68
I00
sVcontains(Wow)
p69
I00
sVcontains(big)
p70
I00
sVcontains(What)
p71
I00
sVcontains(tagline)
p72
I00
sVcontains(Fool)
p73
I00
sVcontains(Flipkart)
p74
I00
sVcontains(what)
p75
I01
sVcontains(trust)
p76
I01
sVcontains(flipkartsupport)
p77
I00
sVsupport\u000a
p78
tp79
a((dp80
Vcontains(Wish)
p81
I00
sVcontains(broken)
p82
I00
sVcontains(RT)
p83
I00
sVcontains(daylight)
p84
I00
sVcontains(Human)
p85
I00
sVcontains(sachinbansal)
p86
I00
sVcontains(so)
p87
I00
sVcontains(To)
p88
I00
sVcontains(the)
p89
I00
sVcontains(Ignorant)
p90
I00
sVcontains(And)
p91
I00
sVcontains(for)
p92
I00
sVcontains(Act)
p93
I00
sVcontains(jeeturaaj)
p94
I01
sVcontains(deal)
p95
I00
sVcontains(looters)
p96
I00
sVcontains(is)
p97
I00
sVcontains(KintuChheda)
p98
I01
sVcontains(a)
p99
I00
sVcontains(about)
p100
I00
sVcontains(B\u2026)
p101
I01
sVcontains(savlachirag)
p102
I00
sVcontains(nileshshah4879)
p103
I01
sVcontains(Wow)
p104
I00
sVcontains(big)
p105
I00
sVcontains(What)
p106
I00
sVcontains(tagline)
p107
I00
sVcontains(Fool)
p108
I00
sVcontains(Flipkart)
p109
I00
sVcontains(what)
p110
I00
sVcontains(trust)
p111
I00
sVcontains(flipkartsupport)
p112
I00
sVnone\u000a
p113
tp114
a((dp115
Vcontains(Wish)
p116
I01
sVcontains(broken)
p117
I00
sVcontains(RT)
p118
I00
sVcontains(daylight)
p119
I01
sVcontains(Human)
p120
I01
sVcontains(sachinbansal)
p121
I01
sVcontains(so)
p122
I00
sVcontains(To)
p123
I01
sVcontains(the)
p124
I00
sVcontains(Ignorant)
p125
I01
sVcontains(And)
p126
I00
sVcontains(for)
p127
I01
sVcontains(Act)
p128
I01
sVcontains(jeeturaaj)
p129
I00
sVcontains(deal)
p130
I00
sVcontains(looters)
p131
I01
sVcontains(is)
p132
I01
sVcontains(KintuChheda)
p133
I00
sVcontains(a)
p134
I01
sVcontains(about)
p135
I00
sVcontains(B\u2026)
p136
I00
sVcontains(savlachirag)
p137
I00
sVcontains(nileshshah4879)
p138
I00
sVcontains(Wow)
p139
I01
sVcontains(big)
p140
I00
sVcontains(What)
p141
I01
sVcontains(tagline)
p142
I01
sVcontains(Fool)
p143
I01
sVcontains(Flipkart)
p144
I01
sVcontains(what)
p145
I00
sVcontains(trust)
p146
I00
sVcontains(flipkartsupport)
p147
I01
sVsupport\u000a
p148
tp149
asS'train_set'
p150
(lp151
(VRT @savlachirag: @Flipkart @flipkartsupport so big deal ???
p152
Vnone\u000a
p153
tp154
a(VAnd what about the broken trust...
p155
Vsupport\u000a
p156
tp157
a(V@nileshshah4879 @KintuChheda @jeeturaaj @B\u2026
p158
Vnone\u000a
p159
tp160
a(V@flipkartsupport "To Wish is Human. To Fool is @Flipkart . To Act Ignorant is @_sachinbansal ." Wow. What a tagline for daylight looters!
p161
Vsupport\u000a
p162
tp163
asS'feature_extractor'
p164
ctextblob.classifiers
basic_extractor
p165
sb.