ccopy_reg
_reconstructor
p0
(ctextblob.classifiers
NaiveBayesClassifier
p1
c__builtin__
object
p2
Ntp3
Rp4
(dp5
S'format_kwargs'
p6
(dp7
sS'train_features'
p8
(lp9
((dp10
S'contains(window)'
p11
I00
sS'contains(checkout)'
p12
I00
sS'contains(site)'
p13
I00
sS'contains(cart)'
p14
I00
sS'contains(login)'
p15
I00
sS'contains(iphon)'
p16
I00
sS'contains(reset)'
p17
I00
sS'contains(payment)'
p18
I00
sS'contains(signup)'
p19
I00
sS'contains(websit)'
p20
I00
sS'contains(product)'
p21
I00
sS'contains(app)'
p22
I00
sS'contains(replac)'
p23
I00
sS'contains(status)'
p24
I00
sS'contains(web)'
p25
I00
sS'contains(android)'
p26
I00
sS'contains(otp)'
p27
I00
sS'contains(io)'
p28
I00
sS'contains(cancel)'
p29
I01
sS'count'
p30
I11
sS'contains(browser)'
p31
I00
sS'contains(order)'
p32
I01
sS'contains(brows)'
p33
I00
sS'contains(search)'
p34
I00
sS'contains(refund)'
p35
I00
sS'contains(password)'
p36
I00
sVself_serve
p37
tp38
a((dp39
S'contains(window)'
p40
I00
sS'contains(checkout)'
p41
I00
sS'contains(site)'
p42
I00
sS'contains(cart)'
p43
I00
sS'contains(login)'
p44
I00
sS'contains(iphon)'
p45
I00
sS'contains(reset)'
p46
I00
sS'contains(payment)'
p47
I00
sS'contains(signup)'
p48
I00
sS'contains(websit)'
p49
I00
sS'contains(product)'
p50
I00
sS'contains(app)'
p51
I00
sS'contains(replac)'
p52
I00
sS'contains(status)'
p53
I00
sS'contains(web)'
p54
I00
sS'contains(android)'
p55
I00
sS'contains(otp)'
p56
I00
sS'contains(io)'
p57
I00
sS'contains(cancel)'
p58
I00
sg30
I17
sS'contains(browser)'
p59
I00
sS'contains(order)'
p60
I00
sS'contains(brows)'
p61
I00
sS'contains(search)'
p62
I00
sS'contains(refund)'
p63
I00
sS'contains(password)'
p64
I00
sVgeneral
p65
tp66
a((dp67
S'contains(window)'
p68
I00
sS'contains(checkout)'
p69
I00
sS'contains(site)'
p70
I00
sS'contains(cart)'
p71
I00
sS'contains(login)'
p72
I00
sS'contains(iphon)'
p73
I00
sS'contains(reset)'
p74
I00
sS'contains(payment)'
p75
I00
sS'contains(signup)'
p76
I00
sS'contains(websit)'
p77
I00
sS'contains(product)'
p78
I01
sS'contains(app)'
p79
I00
sS'contains(replac)'
p80
I00
sS'contains(status)'
p81
I00
sS'contains(web)'
p82
I00
sS'contains(android)'
p83
I00
sS'contains(otp)'
p84
I00
sS'contains(io)'
p85
I00
sS'contains(cancel)'
p86
I00
sg30
I27
sS'contains(browser)'
p87
I00
sS'contains(order)'
p88
I01
sS'contains(brows)'
p89
I00
sS'contains(search)'
p90
I00
sS'contains(refund)'
p91
I00
sS'contains(password)'
p92
I00
sVtransact
p93
tp94
a((dp95
S'contains(window)'
p96
I00
sS'contains(checkout)'
p97
I00
sS'contains(site)'
p98
I00
sS'contains(cart)'
p99
I00
sS'contains(login)'
p100
I00
sS'contains(iphon)'
p101
I00
sS'contains(reset)'
p102
I00
sS'contains(payment)'
p103
I00
sS'contains(signup)'
p104
I00
sS'contains(websit)'
p105
I00
sS'contains(product)'
p106
I01
sS'contains(app)'
p107
I00
sS'contains(replac)'
p108
I00
sS'contains(status)'
p109
I00
sS'contains(web)'
p110
I00
sS'contains(android)'
p111
I00
sS'contains(otp)'
p112
I00
sS'contains(io)'
p113
I00
sS'contains(cancel)'
p114
I00
sg30
I23
sS'contains(browser)'
p115
I00
sS'contains(order)'
p116
I00
sS'contains(brows)'
p117
I00
sS'contains(search)'
p118
I00
sS'contains(refund)'
p119
I00
sS'contains(password)'
p120
I00
sVgeneral
p121
tp122
a((dp123
S'contains(window)'
p124
I00
sS'contains(checkout)'
p125
I00
sS'contains(site)'
p126
I00
sS'contains(cart)'
p127
I00
sS'contains(login)'
p128
I00
sS'contains(iphon)'
p129
I00
sS'contains(reset)'
p130
I00
sS'contains(payment)'
p131
I00
sS'contains(signup)'
p132
I00
sS'contains(websit)'
p133
I00
sS'contains(product)'
p134
I00
sS'contains(app)'
p135
I00
sS'contains(replac)'
p136
I00
sS'contains(status)'
p137
I00
sS'contains(web)'
p138
I00
sS'contains(android)'
p139
I00
sS'contains(otp)'
p140
I00
sS'contains(io)'
p141
I00
sS'contains(cancel)'
p142
I00
sg30
I21
sS'contains(browser)'
p143
I00
sS'contains(order)'
p144
I00
sS'contains(brows)'
p145
I00
sS'contains(search)'
p146
I00
sS'contains(refund)'
p147
I00
sS'contains(password)'
p148
I00
sVgeneral
p149
tp150
a((dp151
S'contains(window)'
p152
I00
sS'contains(checkout)'
p153
I00
sS'contains(site)'
p154
I00
sS'contains(cart)'
p155
I00
sS'contains(login)'
p156
I00
sS'contains(iphon)'
p157
I00
sS'contains(reset)'
p158
I00
sS'contains(payment)'
p159
I00
sS'contains(signup)'
p160
I00
sS'contains(websit)'
p161
I00
sS'contains(product)'
p162
I00
sS'contains(app)'
p163
I00
sS'contains(replac)'
p164
I00
sS'contains(status)'
p165
I00
sS'contains(web)'
p166
I00
sS'contains(android)'
p167
I00
sS'contains(otp)'
p168
I00
sS'contains(io)'
p169
I00
sS'contains(cancel)'
p170
I00
sg30
I17
sS'contains(browser)'
p171
I00
sS'contains(order)'
p172
I00
sS'contains(brows)'
p173
I00
sS'contains(search)'
p174
I00
sS'contains(refund)'
p175
I00
sS'contains(password)'
p176
I00
sVgeneral
p177
tp178
a((dp179
S'contains(window)'
p180
I00
sS'contains(checkout)'
p181
I00
sS'contains(site)'
p182
I00
sS'contains(cart)'
p183
I00
sS'contains(login)'
p184
I00
sS'contains(iphon)'
p185
I00
sS'contains(reset)'
p186
I00
sS'contains(payment)'
p187
I00
sS'contains(signup)'
p188
I00
sS'contains(websit)'
p189
I00
sS'contains(product)'
p190
I00
sS'contains(app)'
p191
I00
sS'contains(replac)'
p192
I00
sS'contains(status)'
p193
I00
sS'contains(web)'
p194
I00
sS'contains(android)'
p195
I00
sS'contains(otp)'
p196
I00
sS'contains(io)'
p197
I00
sS'contains(cancel)'
p198
I00
sg30
I6
sS'contains(browser)'
p199
I00
sS'contains(order)'
p200
I00
sS'contains(brows)'
p201
I00
sS'contains(search)'
p202
I00
sS'contains(refund)'
p203
I00
sS'contains(password)'
p204
I00
sVgeneral
p205
tp206
a((dp207
S'contains(window)'
p208
I00
sS'contains(checkout)'
p209
I00
sS'contains(site)'
p210
I00
sS'contains(cart)'
p211
I00
sS'contains(login)'
p212
I00
sS'contains(iphon)'
p213
I00
sS'contains(reset)'
p214
I00
sS'contains(payment)'
p215
I00
sS'contains(signup)'
p216
I00
sS'contains(websit)'
p217
I00
sS'contains(product)'
p218
I00
sS'contains(app)'
p219
I01
sS'contains(replac)'
p220
I00
sS'contains(status)'
p221
I00
sS'contains(web)'
p222
I00
sS'contains(android)'
p223
I01
sS'contains(otp)'
p224
I00
sS'contains(io)'
p225
I00
sS'contains(cancel)'
p226
I00
sg30
I16
sS'contains(browser)'
p227
I00
sS'contains(order)'
p228
I00
sS'contains(brows)'
p229
I00
sS'contains(search)'
p230
I00
sS'contains(refund)'
p231
I00
sS'contains(password)'
p232
I00
sVapp
p233
tp234
a((dp235
S'contains(window)'
p236
I00
sS'contains(checkout)'
p237
I00
sS'contains(site)'
p238
I00
sS'contains(cart)'
p239
I00
sS'contains(login)'
p240
I00
sS'contains(iphon)'
p241
I00
sS'contains(reset)'
p242
I00
sS'contains(payment)'
p243
I00
sS'contains(signup)'
p244
I00
sS'contains(websit)'
p245
I00
sS'contains(product)'
p246
I00
sS'contains(app)'
p247
I00
sS'contains(replac)'
p248
I00
sS'contains(status)'
p249
I00
sS'contains(web)'
p250
I00
sS'contains(android)'
p251
I00
sS'contains(otp)'
p252
I00
sS'contains(io)'
p253
I00
sS'contains(cancel)'
p254
I00
sg30
I15
sS'contains(browser)'
p255
I00
sS'contains(order)'
p256
I00
sS'contains(brows)'
p257
I00
sS'contains(search)'
p258
I00
sS'contains(refund)'
p259
I00
sS'contains(password)'
p260
I00
sVgeneral
p261
tp262
a((dp263
S'contains(window)'
p264
I00
sS'contains(checkout)'
p265
I00
sS'contains(site)'
p266
I00
sS'contains(cart)'
p267
I00
sS'contains(login)'
p268
I00
sS'contains(iphon)'
p269
I00
sS'contains(reset)'
p270
I00
sS'contains(payment)'
p271
I00
sS'contains(signup)'
p272
I00
sS'contains(websit)'
p273
I00
sS'contains(product)'
p274
I00
sS'contains(app)'
p275
I00
sS'contains(replac)'
p276
I00
sS'contains(status)'
p277
I00
sS'contains(web)'
p278
I00
sS'contains(android)'
p279
I00
sS'contains(otp)'
p280
I00
sS'contains(io)'
p281
I00
sS'contains(cancel)'
p282
I00
sg30
I22
sS'contains(browser)'
p283
I00
sS'contains(order)'
p284
I00
sS'contains(brows)'
p285
I00
sS'contains(search)'
p286
I00
sS'contains(refund)'
p287
I00
sS'contains(password)'
p288
I00
sVgeneral
p289
tp290
a((dp291
S'contains(window)'
p292
I00
sS'contains(checkout)'
p293
I00
sS'contains(site)'
p294
I00
sS'contains(cart)'
p295
I00
sS'contains(login)'
p296
I00
sS'contains(iphon)'
p297
I00
sS'contains(reset)'
p298
I00
sS'contains(payment)'
p299
I00
sS'contains(signup)'
p300
I00
sS'contains(websit)'
p301
I00
sS'contains(product)'
p302
I00
sS'contains(app)'
p303
I00
sS'contains(replac)'
p304
I00
sS'contains(status)'
p305
I00
sS'contains(web)'
p306
I00
sS'contains(android)'
p307
I00
sS'contains(otp)'
p308
I00
sS'contains(io)'
p309
I00
sS'contains(cancel)'
p310
I00
sg30
I15
sS'contains(browser)'
p311
I00
sS'contains(order)'
p312
I00
sS'contains(brows)'
p313
I00
sS'contains(search)'
p314
I00
sS'contains(refund)'
p315
I00
sS'contains(password)'
p316
I00
sVgeneral
p317
tp318
a((dp319
S'contains(window)'
p320
I00
sS'contains(checkout)'
p321
I00
sS'contains(site)'
p322
I00
sS'contains(cart)'
p323
I00
sS'contains(login)'
p324
I00
sS'contains(iphon)'
p325
I00
sS'contains(reset)'
p326
I00
sS'contains(payment)'
p327
I00
sS'contains(signup)'
p328
I00
sS'contains(websit)'
p329
I00
sS'contains(product)'
p330
I00
sS'contains(app)'
p331
I00
sS'contains(replac)'
p332
I00
sS'contains(status)'
p333
I00
sS'contains(web)'
p334
I00
sS'contains(android)'
p335
I00
sS'contains(otp)'
p336
I00
sS'contains(io)'
p337
I00
sS'contains(cancel)'
p338
I00
sg30
I10
sS'contains(browser)'
p339
I00
sS'contains(order)'
p340
I00
sS'contains(brows)'
p341
I00
sS'contains(search)'
p342
I00
sS'contains(refund)'
p343
I00
sS'contains(password)'
p344
I00
sVgeneral
p345
tp346
a((dp347
S'contains(window)'
p348
I00
sS'contains(checkout)'
p349
I00
sS'contains(site)'
p350
I00
sS'contains(cart)'
p351
I00
sS'contains(login)'
p352
I00
sS'contains(iphon)'
p353
I00
sS'contains(reset)'
p354
I00
sS'contains(payment)'
p355
I00
sS'contains(signup)'
p356
I00
sS'contains(websit)'
p357
I00
sS'contains(product)'
p358
I00
sS'contains(app)'
p359
I00
sS'contains(replac)'
p360
I00
sS'contains(status)'
p361
I00
sS'contains(web)'
p362
I00
sS'contains(android)'
p363
I00
sS'contains(otp)'
p364
I00
sS'contains(io)'
p365
I00
sS'contains(cancel)'
p366
I00
sg30
I9
sS'contains(browser)'
p367
I00
sS'contains(order)'
p368
I00
sS'contains(brows)'
p369
I00
sS'contains(search)'
p370
I00
sS'contains(refund)'
p371
I00
sS'contains(password)'
p372
I00
sVpromotions
p373
tp374
a((dp375
S'contains(window)'
p376
I00
sS'contains(checkout)'
p377
I00
sS'contains(site)'
p378
I00
sS'contains(cart)'
p379
I00
sS'contains(login)'
p380
I00
sS'contains(iphon)'
p381
I00
sS'contains(reset)'
p382
I00
sS'contains(payment)'
p383
I00
sS'contains(signup)'
p384
I00
sS'contains(websit)'
p385
I00
sS'contains(product)'
p386
I00
sS'contains(app)'
p387
I00
sS'contains(replac)'
p388
I00
sS'contains(status)'
p389
I00
sS'contains(web)'
p390
I00
sS'contains(android)'
p391
I00
sS'contains(otp)'
p392
I00
sS'contains(io)'
p393
I00
sS'contains(cancel)'
p394
I00
sg30
I11
sS'contains(browser)'
p395
I00
sS'contains(order)'
p396
I00
sS'contains(brows)'
p397
I00
sS'contains(search)'
p398
I00
sS'contains(refund)'
p399
I00
sS'contains(password)'
p400
I00
sVpricing
p401
tp402
a((dp403
S'contains(window)'
p404
I00
sS'contains(checkout)'
p405
I00
sS'contains(site)'
p406
I00
sS'contains(cart)'
p407
I00
sS'contains(login)'
p408
I00
sS'contains(iphon)'
p409
I00
sS'contains(reset)'
p410
I00
sS'contains(payment)'
p411
I00
sS'contains(signup)'
p412
I00
sS'contains(websit)'
p413
I00
sS'contains(product)'
p414
I00
sS'contains(app)'
p415
I00
sS'contains(replac)'
p416
I00
sS'contains(status)'
p417
I00
sS'contains(web)'
p418
I00
sS'contains(android)'
p419
I00
sS'contains(otp)'
p420
I00
sS'contains(io)'
p421
I00
sS'contains(cancel)'
p422
I00
sg30
I10
sS'contains(browser)'
p423
I00
sS'contains(order)'
p424
I00
sS'contains(brows)'
p425
I00
sS'contains(search)'
p426
I00
sS'contains(refund)'
p427
I00
sS'contains(password)'
p428
I00
sVsupply_chain
p429
tp430
a((dp431
S'contains(window)'
p432
I00
sS'contains(checkout)'
p433
I00
sS'contains(site)'
p434
I00
sS'contains(cart)'
p435
I00
sS'contains(login)'
p436
I00
sS'contains(iphon)'
p437
I00
sS'contains(reset)'
p438
I00
sS'contains(payment)'
p439
I00
sS'contains(signup)'
p440
I00
sS'contains(websit)'
p441
I00
sS'contains(product)'
p442
I00
sS'contains(app)'
p443
I00
sS'contains(replac)'
p444
I00
sS'contains(status)'
p445
I00
sS'contains(web)'
p446
I00
sS'contains(android)'
p447
I00
sS'contains(otp)'
p448
I00
sS'contains(io)'
p449
I00
sS'contains(cancel)'
p450
I00
sg30
I10
sS'contains(browser)'
p451
I00
sS'contains(order)'
p452
I00
sS'contains(brows)'
p453
I00
sS'contains(search)'
p454
I00
sS'contains(refund)'
p455
I00
sS'contains(password)'
p456
I00
sVgeneral
p457
tp458
a((dp459
S'contains(window)'
p460
I00
sS'contains(checkout)'
p461
I00
sS'contains(site)'
p462
I00
sS'contains(cart)'
p463
I00
sS'contains(login)'
p464
I00
sS'contains(iphon)'
p465
I00
sS'contains(reset)'
p466
I00
sS'contains(payment)'
p467
I00
sS'contains(signup)'
p468
I00
sS'contains(websit)'
p469
I00
sS'contains(product)'
p470
I00
sS'contains(app)'
p471
I00
sS'contains(replac)'
p472
I00
sS'contains(status)'
p473
I00
sS'contains(web)'
p474
I00
sS'contains(android)'
p475
I00
sS'contains(otp)'
p476
I00
sS'contains(io)'
p477
I00
sS'contains(cancel)'
p478
I00
sg30
I20
sS'contains(browser)'
p479
I00
sS'contains(order)'
p480
I00
sS'contains(brows)'
p481
I00
sS'contains(search)'
p482
I00
sS'contains(refund)'
p483
I00
sS'contains(password)'
p484
I00
sVtransact
p485
tp486
a((dp487
S'contains(window)'
p488
I00
sS'contains(checkout)'
p489
I00
sS'contains(site)'
p490
I00
sS'contains(cart)'
p491
I00
sS'contains(login)'
p492
I00
sS'contains(iphon)'
p493
I00
sS'contains(reset)'
p494
I00
sS'contains(payment)'
p495
I00
sS'contains(signup)'
p496
I00
sS'contains(websit)'
p497
I00
sS'contains(product)'
p498
I00
sS'contains(app)'
p499
I00
sS'contains(replac)'
p500
I00
sS'contains(status)'
p501
I00
sS'contains(web)'
p502
I00
sS'contains(android)'
p503
I00
sS'contains(otp)'
p504
I00
sS'contains(io)'
p505
I00
sS'contains(cancel)'
p506
I00
sg30
I22
sS'contains(browser)'
p507
I00
sS'contains(order)'
p508
I00
sS'contains(brows)'
p509
I00
sS'contains(search)'
p510
I01
sS'contains(refund)'
p511
I00
sS'contains(password)'
p512
I00
sVdoctype
p513
tp514
a((dp515
S'contains(window)'
p516
I00
sS'contains(checkout)'
p517
I00
sS'contains(site)'
p518
I00
sS'contains(cart)'
p519
I00
sS'contains(login)'
p520
I00
sS'contains(iphon)'
p521
I00
sS'contains(reset)'
p522
I00
sS'contains(payment)'
p523
I00
sS'contains(signup)'
p524
I00
sS'contains(websit)'
p525
I00
sS'contains(product)'
p526
I01
sS'contains(app)'
p527
I01
sS'contains(replac)'
p528
I00
sS'contains(status)'
p529
I00
sS'contains(web)'
p530
I00
sS'contains(android)'
p531
I00
sS'contains(otp)'
p532
I00
sS'contains(io)'
p533
I00
sS'contains(cancel)'
p534
I00
sg30
I24
sS'contains(browser)'
p535
I00
sS'contains(order)'
p536
I00
sS'contains(brows)'
p537
I00
sS'contains(search)'
p538
I00
sS'contains(refund)'
p539
I00
sS'contains(password)'
p540
I00
sVapp
p541
tp542
a((dp543
S'contains(window)'
p544
I00
sS'contains(checkout)'
p545
I00
sS'contains(site)'
p546
I00
sS'contains(cart)'
p547
I00
sS'contains(login)'
p548
I00
sS'contains(iphon)'
p549
I00
sS'contains(reset)'
p550
I00
sS'contains(payment)'
p551
I00
sS'contains(signup)'
p552
I00
sS'contains(websit)'
p553
I00
sS'contains(product)'
p554
I00
sS'contains(app)'
p555
I00
sS'contains(replac)'
p556
I00
sS'contains(status)'
p557
I00
sS'contains(web)'
p558
I00
sS'contains(android)'
p559
I00
sS'contains(otp)'
p560
I00
sS'contains(io)'
p561
I00
sS'contains(cancel)'
p562
I00
sg30
I14
sS'contains(browser)'
p563
I00
sS'contains(order)'
p564
I00
sS'contains(brows)'
p565
I00
sS'contains(search)'
p566
I00
sS'contains(refund)'
p567
I00
sS'contains(password)'
p568
I00
sVsupply_chain
p569
tp570
a((dp571
S'contains(window)'
p572
I00
sS'contains(checkout)'
p573
I00
sS'contains(site)'
p574
I00
sS'contains(cart)'
p575
I00
sS'contains(login)'
p576
I00
sS'contains(iphon)'
p577
I00
sS'contains(reset)'
p578
I00
sS'contains(payment)'
p579
I00
sS'contains(signup)'
p580
I00
sS'contains(websit)'
p581
I00
sS'contains(product)'
p582
I00
sS'contains(app)'
p583
I00
sS'contains(replac)'
p584
I00
sS'contains(status)'
p585
I00
sS'contains(web)'
p586
I00
sS'contains(android)'
p587
I00
sS'contains(otp)'
p588
I00
sS'contains(io)'
p589
I00
sS'contains(cancel)'
p590
I00
sg30
I13
sS'contains(browser)'
p591
I00
sS'contains(order)'
p592
I00
sS'contains(brows)'
p593
I00
sS'contains(search)'
p594
I00
sS'contains(refund)'
p595
I01
sS'contains(password)'
p596
I00
sVgeneral
p597
tp598
a((dp599
S'contains(window)'
p600
I00
sS'contains(checkout)'
p601
I00
sS'contains(site)'
p602
I00
sS'contains(cart)'
p603
I00
sS'contains(login)'
p604
I00
sS'contains(iphon)'
p605
I00
sS'contains(reset)'
p606
I00
sS'contains(payment)'
p607
I00
sS'contains(signup)'
p608
I00
sS'contains(websit)'
p609
I00
sS'contains(product)'
p610
I00
sS'contains(app)'
p611
I00
sS'contains(replac)'
p612
I00
sS'contains(status)'
p613
I00
sS'contains(web)'
p614
I00
sS'contains(android)'
p615
I00
sS'contains(otp)'
p616
I00
sS'contains(io)'
p617
I00
sS'contains(cancel)'
p618
I00
sg30
I19
sS'contains(browser)'
p619
I00
sS'contains(order)'
p620
I00
sS'contains(brows)'
p621
I00
sS'contains(search)'
p622
I00
sS'contains(refund)'
p623
I00
sS'contains(password)'
p624
I00
sVgeneral
p625
tp626
a((dp627
S'contains(window)'
p628
I00
sS'contains(checkout)'
p629
I00
sS'contains(site)'
p630
I00
sS'contains(cart)'
p631
I00
sS'contains(login)'
p632
I00
sS'contains(iphon)'
p633
I00
sS'contains(reset)'
p634
I00
sS'contains(payment)'
p635
I00
sS'contains(signup)'
p636
I00
sS'contains(websit)'
p637
I00
sS'contains(product)'
p638
I00
sS'contains(app)'
p639
I00
sS'contains(replac)'
p640
I00
sS'contains(status)'
p641
I00
sS'contains(web)'
p642
I00
sS'contains(android)'
p643
I00
sS'contains(otp)'
p644
I00
sS'contains(io)'
p645
I00
sS'contains(cancel)'
p646
I00
sg30
I17
sS'contains(browser)'
p647
I00
sS'contains(order)'
p648
I00
sS'contains(brows)'
p649
I00
sS'contains(search)'
p650
I00
sS'contains(refund)'
p651
I00
sS'contains(password)'
p652
I00
sVgeneral
p653
tp654
a((dp655
S'contains(window)'
p656
I00
sS'contains(checkout)'
p657
I00
sS'contains(site)'
p658
I00
sS'contains(cart)'
p659
I00
sS'contains(login)'
p660
I00
sS'contains(iphon)'
p661
I00
sS'contains(reset)'
p662
I00
sS'contains(payment)'
p663
I00
sS'contains(signup)'
p664
I00
sS'contains(websit)'
p665
I00
sS'contains(product)'
p666
I00
sS'contains(app)'
p667
I01
sS'contains(replac)'
p668
I00
sS'contains(status)'
p669
I00
sS'contains(web)'
p670
I00
sS'contains(android)'
p671
I00
sS'contains(otp)'
p672
I00
sS'contains(io)'
p673
I00
sS'contains(cancel)'
p674
I00
sg30
I24
sS'contains(browser)'
p675
I00
sS'contains(order)'
p676
I00
sS'contains(brows)'
p677
I00
sS'contains(search)'
p678
I00
sS'contains(refund)'
p679
I00
sS'contains(password)'
p680
I00
sVpricing
p681
tp682
a((dp683
S'contains(window)'
p684
I00
sS'contains(checkout)'
p685
I00
sS'contains(site)'
p686
I00
sS'contains(cart)'
p687
I00
sS'contains(login)'
p688
I00
sS'contains(iphon)'
p689
I00
sS'contains(reset)'
p690
I00
sS'contains(payment)'
p691
I00
sS'contains(signup)'
p692
I00
sS'contains(websit)'
p693
I00
sS'contains(product)'
p694
I00
sS'contains(app)'
p695
I00
sS'contains(replac)'
p696
I00
sS'contains(status)'
p697
I00
sS'contains(web)'
p698
I00
sS'contains(android)'
p699
I00
sS'contains(otp)'
p700
I00
sS'contains(io)'
p701
I00
sS'contains(cancel)'
p702
I00
sg30
I20
sS'contains(browser)'
p703
I00
sS'contains(order)'
p704
I00
sS'contains(brows)'
p705
I00
sS'contains(search)'
p706
I00
sS'contains(refund)'
p707
I00
sS'contains(password)'
p708
I00
sVgeneral
p709
tp710
a((dp711
S'contains(window)'
p712
I00
sS'contains(checkout)'
p713
I00
sS'contains(site)'
p714
I00
sS'contains(cart)'
p715
I00
sS'contains(login)'
p716
I00
sS'contains(iphon)'
p717
I00
sS'contains(reset)'
p718
I00
sS'contains(payment)'
p719
I00
sS'contains(signup)'
p720
I00
sS'contains(websit)'
p721
I00
sS'contains(product)'
p722
I00
sS'contains(app)'
p723
I00
sS'contains(replac)'
p724
I00
sS'contains(status)'
p725
I00
sS'contains(web)'
p726
I00
sS'contains(android)'
p727
I00
sS'contains(otp)'
p728
I00
sS'contains(io)'
p729
I00
sS'contains(cancel)'
p730
I00
sg30
I15
sS'contains(browser)'
p731
I00
sS'contains(order)'
p732
I00
sS'contains(brows)'
p733
I00
sS'contains(search)'
p734
I00
sS'contains(refund)'
p735
I00
sS'contains(password)'
p736
I00
sVgeneral
p737
tp738
a((dp739
S'contains(window)'
p740
I00
sS'contains(checkout)'
p741
I00
sS'contains(site)'
p742
I00
sS'contains(cart)'
p743
I00
sS'contains(login)'
p744
I00
sS'contains(iphon)'
p745
I00
sS'contains(reset)'
p746
I00
sS'contains(payment)'
p747
I00
sS'contains(signup)'
p748
I00
sS'contains(websit)'
p749
I00
sS'contains(product)'
p750
I00
sS'contains(app)'
p751
I00
sS'contains(replac)'
p752
I00
sS'contains(status)'
p753
I00
sS'contains(web)'
p754
I00
sS'contains(android)'
p755
I00
sS'contains(otp)'
p756
I00
sS'contains(io)'
p757
I00
sS'contains(cancel)'
p758
I00
sg30
I26
sS'contains(browser)'
p759
I00
sS'contains(order)'
p760
I01
sS'contains(brows)'
p761
I00
sS'contains(search)'
p762
I00
sS'contains(refund)'
p763
I00
sS'contains(password)'
p764
I00
sVsupply_chain
p765
tp766
a((dp767
S'contains(window)'
p768
I00
sS'contains(checkout)'
p769
I00
sS'contains(site)'
p770
I00
sS'contains(cart)'
p771
I00
sS'contains(login)'
p772
I00
sS'contains(iphon)'
p773
I00
sS'contains(reset)'
p774
I00
sS'contains(payment)'
p775
I00
sS'contains(signup)'
p776
I00
sS'contains(websit)'
p777
I00
sS'contains(product)'
p778
I00
sS'contains(app)'
p779
I00
sS'contains(replac)'
p780
I00
sS'contains(status)'
p781
I00
sS'contains(web)'
p782
I00
sS'contains(android)'
p783
I00
sS'contains(otp)'
p784
I00
sS'contains(io)'
p785
I00
sS'contains(cancel)'
p786
I00
sg30
I16
sS'contains(browser)'
p787
I00
sS'contains(order)'
p788
I00
sS'contains(brows)'
p789
I00
sS'contains(search)'
p790
I00
sS'contains(refund)'
p791
I00
sS'contains(password)'
p792
I00
sVgeneral
p793
tp794
a((dp795
S'contains(window)'
p796
I00
sS'contains(checkout)'
p797
I00
sS'contains(site)'
p798
I00
sS'contains(cart)'
p799
I00
sS'contains(login)'
p800
I00
sS'contains(iphon)'
p801
I00
sS'contains(reset)'
p802
I00
sS'contains(payment)'
p803
I00
sS'contains(signup)'
p804
I00
sS'contains(websit)'
p805
I00
sS'contains(product)'
p806
I00
sS'contains(app)'
p807
I00
sS'contains(replac)'
p808
I00
sS'contains(status)'
p809
I00
sS'contains(web)'
p810
I00
sS'contains(android)'
p811
I00
sS'contains(otp)'
p812
I00
sS'contains(io)'
p813
I00
sS'contains(cancel)'
p814
I00
sg30
I9
sS'contains(browser)'
p815
I00
sS'contains(order)'
p816
I00
sS'contains(brows)'
p817
I00
sS'contains(search)'
p818
I00
sS'contains(refund)'
p819
I00
sS'contains(password)'
p820
I00
sVsupply_chain
p821
tp822
a((dp823
S'contains(window)'
p824
I00
sS'contains(checkout)'
p825
I00
sS'contains(site)'
p826
I00
sS'contains(cart)'
p827
I00
sS'contains(login)'
p828
I00
sS'contains(iphon)'
p829
I00
sS'contains(reset)'
p830
I00
sS'contains(payment)'
p831
I00
sS'contains(signup)'
p832
I00
sS'contains(websit)'
p833
I00
sS'contains(product)'
p834
I00
sS'contains(app)'
p835
I01
sS'contains(replac)'
p836
I00
sS'contains(status)'
p837
I00
sS'contains(web)'
p838
I00
sS'contains(android)'
p839
I00
sS'contains(otp)'
p840
I00
sS'contains(io)'
p841
I00
sS'contains(cancel)'
p842
I00
sg30
I22
sS'contains(browser)'
p843
I00
sS'contains(order)'
p844
I01
sS'contains(brows)'
p845
I00
sS'contains(search)'
p846
I00
sS'contains(refund)'
p847
I00
sS'contains(password)'
p848
I00
sVapp
p849
tp850
a((dp851
S'contains(window)'
p852
I00
sS'contains(checkout)'
p853
I00
sS'contains(site)'
p854
I00
sS'contains(cart)'
p855
I00
sS'contains(login)'
p856
I00
sS'contains(iphon)'
p857
I00
sS'contains(reset)'
p858
I00
sS'contains(payment)'
p859
I00
sS'contains(signup)'
p860
I00
sS'contains(websit)'
p861
I00
sS'contains(product)'
p862
I00
sS'contains(app)'
p863
I00
sS'contains(replac)'
p864
I00
sS'contains(status)'
p865
I00
sS'contains(web)'
p866
I00
sS'contains(android)'
p867
I00
sS'contains(otp)'
p868
I00
sS'contains(io)'
p869
I00
sS'contains(cancel)'
p870
I00
sg30
I19
sS'contains(browser)'
p871
I00
sS'contains(order)'
p872
I00
sS'contains(brows)'
p873
I00
sS'contains(search)'
p874
I00
sS'contains(refund)'
p875
I00
sS'contains(password)'
p876
I00
sVgeneral
p877
tp878
a((dp879
S'contains(window)'
p880
I00
sS'contains(checkout)'
p881
I00
sS'contains(site)'
p882
I00
sS'contains(cart)'
p883
I00
sS'contains(login)'
p884
I00
sS'contains(iphon)'
p885
I00
sS'contains(reset)'
p886
I00
sS'contains(payment)'
p887
I00
sS'contains(signup)'
p888
I00
sS'contains(websit)'
p889
I00
sS'contains(product)'
p890
I00
sS'contains(app)'
p891
I00
sS'contains(replac)'
p892
I00
sS'contains(status)'
p893
I00
sS'contains(web)'
p894
I00
sS'contains(android)'
p895
I00
sS'contains(otp)'
p896
I00
sS'contains(io)'
p897
I00
sS'contains(cancel)'
p898
I00
sg30
I22
sS'contains(browser)'
p899
I00
sS'contains(order)'
p900
I00
sS'contains(brows)'
p901
I00
sS'contains(search)'
p902
I00
sS'contains(refund)'
p903
I01
sS'contains(password)'
p904
I00
sVself_serve
p905
tp906
a((dp907
S'contains(window)'
p908
I00
sS'contains(checkout)'
p909
I00
sS'contains(site)'
p910
I00
sS'contains(cart)'
p911
I00
sS'contains(login)'
p912
I00
sS'contains(iphon)'
p913
I00
sS'contains(reset)'
p914
I00
sS'contains(payment)'
p915
I00
sS'contains(signup)'
p916
I00
sS'contains(websit)'
p917
I00
sS'contains(product)'
p918
I00
sS'contains(app)'
p919
I00
sS'contains(replac)'
p920
I00
sS'contains(status)'
p921
I00
sS'contains(web)'
p922
I00
sS'contains(android)'
p923
I00
sS'contains(otp)'
p924
I00
sS'contains(io)'
p925
I00
sS'contains(cancel)'
p926
I00
sg30
I9
sS'contains(browser)'
p927
I00
sS'contains(order)'
p928
I00
sS'contains(brows)'
p929
I00
sS'contains(search)'
p930
I00
sS'contains(refund)'
p931
I00
sS'contains(password)'
p932
I00
sVgeneral
p933
tp934
a((dp935
S'contains(window)'
p936
I00
sS'contains(checkout)'
p937
I00
sS'contains(site)'
p938
I00
sS'contains(cart)'
p939
I00
sS'contains(login)'
p940
I00
sS'contains(iphon)'
p941
I00
sS'contains(reset)'
p942
I00
sS'contains(payment)'
p943
I00
sS'contains(signup)'
p944
I00
sS'contains(websit)'
p945
I00
sS'contains(product)'
p946
I00
sS'contains(app)'
p947
I00
sS'contains(replac)'
p948
I00
sS'contains(status)'
p949
I00
sS'contains(web)'
p950
I00
sS'contains(android)'
p951
I00
sS'contains(otp)'
p952
I00
sS'contains(io)'
p953
I00
sS'contains(cancel)'
p954
I00
sg30
I9
sS'contains(browser)'
p955
I00
sS'contains(order)'
p956
I00
sS'contains(brows)'
p957
I00
sS'contains(search)'
p958
I00
sS'contains(refund)'
p959
I00
sS'contains(password)'
p960
I00
sVgeneral
p961
tp962
a((dp963
S'contains(window)'
p964
I00
sS'contains(checkout)'
p965
I00
sS'contains(site)'
p966
I00
sS'contains(cart)'
p967
I00
sS'contains(login)'
p968
I00
sS'contains(iphon)'
p969
I00
sS'contains(reset)'
p970
I00
sS'contains(payment)'
p971
I00
sS'contains(signup)'
p972
I00
sS'contains(websit)'
p973
I00
sS'contains(product)'
p974
I00
sS'contains(app)'
p975
I00
sS'contains(replac)'
p976
I00
sS'contains(status)'
p977
I00
sS'contains(web)'
p978
I00
sS'contains(android)'
p979
I00
sS'contains(otp)'
p980
I00
sS'contains(io)'
p981
I00
sS'contains(cancel)'
p982
I00
sg30
I18
sS'contains(browser)'
p983
I00
sS'contains(order)'
p984
I00
sS'contains(brows)'
p985
I00
sS'contains(search)'
p986
I00
sS'contains(refund)'
p987
I00
sS'contains(password)'
p988
I00
sVgeneral
p989
tp990
a((dp991
S'contains(window)'
p992
I00
sS'contains(checkout)'
p993
I00
sS'contains(site)'
p994
I00
sS'contains(cart)'
p995
I00
sS'contains(login)'
p996
I00
sS'contains(iphon)'
p997
I00
sS'contains(reset)'
p998
I00
sS'contains(payment)'
p999
I00
sS'contains(signup)'
p1000
I00
sS'contains(websit)'
p1001
I00
sS'contains(product)'
p1002
I00
sS'contains(app)'
p1003
I00
sS'contains(replac)'
p1004
I00
sS'contains(status)'
p1005
I00
sS'contains(web)'
p1006
I00
sS'contains(android)'
p1007
I00
sS'contains(otp)'
p1008
I00
sS'contains(io)'
p1009
I00
sS'contains(cancel)'
p1010
I00
sg30
I7
sS'contains(browser)'
p1011
I00
sS'contains(order)'
p1012
I00
sS'contains(brows)'
p1013
I00
sS'contains(search)'
p1014
I00
sS'contains(refund)'
p1015
I00
sS'contains(password)'
p1016
I00
sVpromotions
p1017
tp1018
a((dp1019
S'contains(window)'
p1020
I00
sS'contains(checkout)'
p1021
I00
sS'contains(site)'
p1022
I00
sS'contains(cart)'
p1023
I00
sS'contains(login)'
p1024
I00
sS'contains(iphon)'
p1025
I00
sS'contains(reset)'
p1026
I00
sS'contains(payment)'
p1027
I00
sS'contains(signup)'
p1028
I00
sS'contains(websit)'
p1029
I00
sS'contains(product)'
p1030
I00
sS'contains(app)'
p1031
I00
sS'contains(replac)'
p1032
I00
sS'contains(status)'
p1033
I00
sS'contains(web)'
p1034
I00
sS'contains(android)'
p1035
I00
sS'contains(otp)'
p1036
I00
sS'contains(io)'
p1037
I00
sS'contains(cancel)'
p1038
I00
sg30
I13
sS'contains(browser)'
p1039
I00
sS'contains(order)'
p1040
I01
sS'contains(brows)'
p1041
I00
sS'contains(search)'
p1042
I00
sS'contains(refund)'
p1043
I00
sS'contains(password)'
p1044
I00
sVtransact
p1045
tp1046
a((dp1047
S'contains(window)'
p1048
I00
sS'contains(checkout)'
p1049
I00
sS'contains(site)'
p1050
I00
sS'contains(cart)'
p1051
I00
sS'contains(login)'
p1052
I00
sS'contains(iphon)'
p1053
I00
sS'contains(reset)'
p1054
I00
sS'contains(payment)'
p1055
I00
sS'contains(signup)'
p1056
I00
sS'contains(websit)'
p1057
I00
sS'contains(product)'
p1058
I00
sS'contains(app)'
p1059
I00
sS'contains(replac)'
p1060
I00
sS'contains(status)'
p1061
I00
sS'contains(web)'
p1062
I00
sS'contains(android)'
p1063
I00
sS'contains(otp)'
p1064
I00
sS'contains(io)'
p1065
I00
sS'contains(cancel)'
p1066
I00
sg30
I12
sS'contains(browser)'
p1067
I00
sS'contains(order)'
p1068
I00
sS'contains(brows)'
p1069
I00
sS'contains(search)'
p1070
I00
sS'contains(refund)'
p1071
I00
sS'contains(password)'
p1072
I00
sVgeneral
p1073
tp1074
a((dp1075
S'contains(window)'
p1076
I00
sS'contains(checkout)'
p1077
I00
sS'contains(site)'
p1078
I00
sS'contains(cart)'
p1079
I00
sS'contains(login)'
p1080
I00
sS'contains(iphon)'
p1081
I00
sS'contains(reset)'
p1082
I00
sS'contains(payment)'
p1083
I00
sS'contains(signup)'
p1084
I00
sS'contains(websit)'
p1085
I00
sS'contains(product)'
p1086
I01
sS'contains(app)'
p1087
I00
sS'contains(replac)'
p1088
I00
sS'contains(status)'
p1089
I00
sS'contains(web)'
p1090
I00
sS'contains(android)'
p1091
I00
sS'contains(otp)'
p1092
I00
sS'contains(io)'
p1093
I00
sS'contains(cancel)'
p1094
I00
sg30
I19
sS'contains(browser)'
p1095
I00
sS'contains(order)'
p1096
I00
sS'contains(brows)'
p1097
I00
sS'contains(search)'
p1098
I00
sS'contains(refund)'
p1099
I00
sS'contains(password)'
p1100
I00
sVgeneral
p1101
tp1102
a((dp1103
S'contains(window)'
p1104
I00
sS'contains(checkout)'
p1105
I00
sS'contains(site)'
p1106
I00
sS'contains(cart)'
p1107
I00
sS'contains(login)'
p1108
I00
sS'contains(iphon)'
p1109
I00
sS'contains(reset)'
p1110
I00
sS'contains(payment)'
p1111
I00
sS'contains(signup)'
p1112
I00
sS'contains(websit)'
p1113
I00
sS'contains(product)'
p1114
I00
sS'contains(app)'
p1115
I00
sS'contains(replac)'
p1116
I00
sS'contains(status)'
p1117
I00
sS'contains(web)'
p1118
I00
sS'contains(android)'
p1119
I00
sS'contains(otp)'
p1120
I00
sS'contains(io)'
p1121
I00
sS'contains(cancel)'
p1122
I00
sg30
I19
sS'contains(browser)'
p1123
I00
sS'contains(order)'
p1124
I00
sS'contains(brows)'
p1125
I00
sS'contains(search)'
p1126
I00
sS'contains(refund)'
p1127
I00
sS'contains(password)'
p1128
I00
sVsupply_chain
p1129
tp1130
a((dp1131
S'contains(window)'
p1132
I00
sS'contains(checkout)'
p1133
I00
sS'contains(site)'
p1134
I00
sS'contains(cart)'
p1135
I00
sS'contains(login)'
p1136
I00
sS'contains(iphon)'
p1137
I00
sS'contains(reset)'
p1138
I00
sS'contains(payment)'
p1139
I00
sS'contains(signup)'
p1140
I00
sS'contains(websit)'
p1141
I00
sS'contains(product)'
p1142
I00
sS'contains(app)'
p1143
I00
sS'contains(replac)'
p1144
I00
sS'contains(status)'
p1145
I00
sS'contains(web)'
p1146
I00
sS'contains(android)'
p1147
I00
sS'contains(otp)'
p1148
I00
sS'contains(io)'
p1149
I00
sS'contains(cancel)'
p1150
I00
sg30
I6
sS'contains(browser)'
p1151
I00
sS'contains(order)'
p1152
I00
sS'contains(brows)'
p1153
I00
sS'contains(search)'
p1154
I00
sS'contains(refund)'
p1155
I00
sS'contains(password)'
p1156
I00
sVgeneral
p1157
tp1158
a((dp1159
S'contains(window)'
p1160
I00
sS'contains(checkout)'
p1161
I00
sS'contains(site)'
p1162
I00
sS'contains(cart)'
p1163
I00
sS'contains(login)'
p1164
I00
sS'contains(iphon)'
p1165
I00
sS'contains(reset)'
p1166
I00
sS'contains(payment)'
p1167
I00
sS'contains(signup)'
p1168
I00
sS'contains(websit)'
p1169
I00
sS'contains(product)'
p1170
I00
sS'contains(app)'
p1171
I00
sS'contains(replac)'
p1172
I00
sS'contains(status)'
p1173
I00
sS'contains(web)'
p1174
I00
sS'contains(android)'
p1175
I00
sS'contains(otp)'
p1176
I00
sS'contains(io)'
p1177
I00
sS'contains(cancel)'
p1178
I00
sg30
I17
sS'contains(browser)'
p1179
I00
sS'contains(order)'
p1180
I00
sS'contains(brows)'
p1181
I00
sS'contains(search)'
p1182
I00
sS'contains(refund)'
p1183
I00
sS'contains(password)'
p1184
I00
sVpricing
p1185
tp1186
a((dp1187
S'contains(window)'
p1188
I00
sS'contains(checkout)'
p1189
I00
sS'contains(site)'
p1190
I00
sS'contains(cart)'
p1191
I00
sS'contains(login)'
p1192
I00
sS'contains(iphon)'
p1193
I00
sS'contains(reset)'
p1194
I00
sS'contains(payment)'
p1195
I00
sS'contains(signup)'
p1196
I00
sS'contains(websit)'
p1197
I00
sS'contains(product)'
p1198
I00
sS'contains(app)'
p1199
I00
sS'contains(replac)'
p1200
I00
sS'contains(status)'
p1201
I00
sS'contains(web)'
p1202
I00
sS'contains(android)'
p1203
I00
sS'contains(otp)'
p1204
I00
sS'contains(io)'
p1205
I00
sS'contains(cancel)'
p1206
I00
sg30
I16
sS'contains(browser)'
p1207
I00
sS'contains(order)'
p1208
I00
sS'contains(brows)'
p1209
I00
sS'contains(search)'
p1210
I00
sS'contains(refund)'
p1211
I00
sS'contains(password)'
p1212
I00
sVgeneral
p1213
tp1214
a((dp1215
S'contains(window)'
p1216
I00
sS'contains(checkout)'
p1217
I00
sS'contains(site)'
p1218
I00
sS'contains(cart)'
p1219
I00
sS'contains(login)'
p1220
I00
sS'contains(iphon)'
p1221
I00
sS'contains(reset)'
p1222
I00
sS'contains(payment)'
p1223
I00
sS'contains(signup)'
p1224
I00
sS'contains(websit)'
p1225
I00
sS'contains(product)'
p1226
I00
sS'contains(app)'
p1227
I00
sS'contains(replac)'
p1228
I00
sS'contains(status)'
p1229
I00
sS'contains(web)'
p1230
I00
sS'contains(android)'
p1231
I00
sS'contains(otp)'
p1232
I00
sS'contains(io)'
p1233
I00
sS'contains(cancel)'
p1234
I00
sg30
I21
sS'contains(browser)'
p1235
I00
sS'contains(order)'
p1236
I00
sS'contains(brows)'
p1237
I00
sS'contains(search)'
p1238
I00
sS'contains(refund)'
p1239
I00
sS'contains(password)'
p1240
I00
sVgeneral
p1241
tp1242
a((dp1243
S'contains(window)'
p1244
I00
sS'contains(checkout)'
p1245
I00
sS'contains(site)'
p1246
I00
sS'contains(cart)'
p1247
I00
sS'contains(login)'
p1248
I00
sS'contains(iphon)'
p1249
I00
sS'contains(reset)'
p1250
I00
sS'contains(payment)'
p1251
I00
sS'contains(signup)'
p1252
I00
sS'contains(websit)'
p1253
I00
sS'contains(product)'
p1254
I00
sS'contains(app)'
p1255
I00
sS'contains(replac)'
p1256
I00
sS'contains(status)'
p1257
I00
sS'contains(web)'
p1258
I00
sS'contains(android)'
p1259
I00
sS'contains(otp)'
p1260
I00
sS'contains(io)'
p1261
I00
sS'contains(cancel)'
p1262
I00
sg30
I14
sS'contains(browser)'
p1263
I00
sS'contains(order)'
p1264
I00
sS'contains(brows)'
p1265
I00
sS'contains(search)'
p1266
I00
sS'contains(refund)'
p1267
I00
sS'contains(password)'
p1268
I00
sVgeneral
p1269
tp1270
a((dp1271
S'contains(window)'
p1272
I00
sS'contains(checkout)'
p1273
I00
sS'contains(site)'
p1274
I00
sS'contains(cart)'
p1275
I00
sS'contains(login)'
p1276
I00
sS'contains(iphon)'
p1277
I00
sS'contains(reset)'
p1278
I00
sS'contains(payment)'
p1279
I00
sS'contains(signup)'
p1280
I00
sS'contains(websit)'
p1281
I00
sS'contains(product)'
p1282
I00
sS'contains(app)'
p1283
I00
sS'contains(replac)'
p1284
I00
sS'contains(status)'
p1285
I00
sS'contains(web)'
p1286
I00
sS'contains(android)'
p1287
I00
sS'contains(otp)'
p1288
I00
sS'contains(io)'
p1289
I00
sS'contains(cancel)'
p1290
I00
sg30
I19
sS'contains(browser)'
p1291
I00
sS'contains(order)'
p1292
I00
sS'contains(brows)'
p1293
I00
sS'contains(search)'
p1294
I00
sS'contains(refund)'
p1295
I00
sS'contains(password)'
p1296
I00
sVgeneral
p1297
tp1298
a((dp1299
S'contains(window)'
p1300
I00
sS'contains(checkout)'
p1301
I00
sS'contains(site)'
p1302
I00
sS'contains(cart)'
p1303
I00
sS'contains(login)'
p1304
I00
sS'contains(iphon)'
p1305
I00
sS'contains(reset)'
p1306
I00
sS'contains(payment)'
p1307
I00
sS'contains(signup)'
p1308
I00
sS'contains(websit)'
p1309
I00
sS'contains(product)'
p1310
I00
sS'contains(app)'
p1311
I00
sS'contains(replac)'
p1312
I00
sS'contains(status)'
p1313
I00
sS'contains(web)'
p1314
I00
sS'contains(android)'
p1315
I00
sS'contains(otp)'
p1316
I00
sS'contains(io)'
p1317
I00
sS'contains(cancel)'
p1318
I00
sg30
I23
sS'contains(browser)'
p1319
I00
sS'contains(order)'
p1320
I00
sS'contains(brows)'
p1321
I00
sS'contains(search)'
p1322
I00
sS'contains(refund)'
p1323
I00
sS'contains(password)'
p1324
I00
sVtransact
p1325
tp1326
a((dp1327
S'contains(window)'
p1328
I00
sS'contains(checkout)'
p1329
I00
sS'contains(site)'
p1330
I00
sS'contains(cart)'
p1331
I00
sS'contains(login)'
p1332
I00
sS'contains(iphon)'
p1333
I00
sS'contains(reset)'
p1334
I00
sS'contains(payment)'
p1335
I00
sS'contains(signup)'
p1336
I00
sS'contains(websit)'
p1337
I00
sS'contains(product)'
p1338
I00
sS'contains(app)'
p1339
I00
sS'contains(replac)'
p1340
I00
sS'contains(status)'
p1341
I00
sS'contains(web)'
p1342
I00
sS'contains(android)'
p1343
I00
sS'contains(otp)'
p1344
I00
sS'contains(io)'
p1345
I00
sS'contains(cancel)'
p1346
I00
sg30
I18
sS'contains(browser)'
p1347
I00
sS'contains(order)'
p1348
I00
sS'contains(brows)'
p1349
I00
sS'contains(search)'
p1350
I00
sS'contains(refund)'
p1351
I00
sS'contains(password)'
p1352
I00
sVpromotions
p1353
tp1354
a((dp1355
S'contains(window)'
p1356
I00
sS'contains(checkout)'
p1357
I00
sS'contains(site)'
p1358
I00
sS'contains(cart)'
p1359
I00
sS'contains(login)'
p1360
I00
sS'contains(iphon)'
p1361
I00
sS'contains(reset)'
p1362
I00
sS'contains(payment)'
p1363
I00
sS'contains(signup)'
p1364
I00
sS'contains(websit)'
p1365
I00
sS'contains(product)'
p1366
I00
sS'contains(app)'
p1367
I00
sS'contains(replac)'
p1368
I00
sS'contains(status)'
p1369
I00
sS'contains(web)'
p1370
I00
sS'contains(android)'
p1371
I00
sS'contains(otp)'
p1372
I00
sS'contains(io)'
p1373
I00
sS'contains(cancel)'
p1374
I00
sg30
I11
sS'contains(browser)'
p1375
I00
sS'contains(order)'
p1376
I00
sS'contains(brows)'
p1377
I00
sS'contains(search)'
p1378
I00
sS'contains(refund)'
p1379
I00
sS'contains(password)'
p1380
I00
sVgeneral
p1381
tp1382
a((dp1383
S'contains(window)'
p1384
I00
sS'contains(checkout)'
p1385
I00
sS'contains(site)'
p1386
I00
sS'contains(cart)'
p1387
I00
sS'contains(login)'
p1388
I00
sS'contains(iphon)'
p1389
I00
sS'contains(reset)'
p1390
I00
sS'contains(payment)'
p1391
I00
sS'contains(signup)'
p1392
I00
sS'contains(websit)'
p1393
I00
sS'contains(product)'
p1394
I00
sS'contains(app)'
p1395
I00
sS'contains(replac)'
p1396
I00
sS'contains(status)'
p1397
I00
sS'contains(web)'
p1398
I00
sS'contains(android)'
p1399
I00
sS'contains(otp)'
p1400
I00
sS'contains(io)'
p1401
I00
sS'contains(cancel)'
p1402
I00
sg30
I13
sS'contains(browser)'
p1403
I00
sS'contains(order)'
p1404
I00
sS'contains(brows)'
p1405
I00
sS'contains(search)'
p1406
I00
sS'contains(refund)'
p1407
I00
sS'contains(password)'
p1408
I00
sVsupply_chain
p1409
tp1410
a((dp1411
S'contains(window)'
p1412
I00
sS'contains(checkout)'
p1413
I00
sS'contains(site)'
p1414
I00
sS'contains(cart)'
p1415
I00
sS'contains(login)'
p1416
I00
sS'contains(iphon)'
p1417
I00
sS'contains(reset)'
p1418
I00
sS'contains(payment)'
p1419
I00
sS'contains(signup)'
p1420
I00
sS'contains(websit)'
p1421
I00
sS'contains(product)'
p1422
I00
sS'contains(app)'
p1423
I00
sS'contains(replac)'
p1424
I00
sS'contains(status)'
p1425
I00
sS'contains(web)'
p1426
I00
sS'contains(android)'
p1427
I00
sS'contains(otp)'
p1428
I00
sS'contains(io)'
p1429
I00
sS'contains(cancel)'
p1430
I00
sg30
I20
sS'contains(browser)'
p1431
I00
sS'contains(order)'
p1432
I00
sS'contains(brows)'
p1433
I00
sS'contains(search)'
p1434
I00
sS'contains(refund)'
p1435
I00
sS'contains(password)'
p1436
I00
sVtransact
p1437
tp1438
a((dp1439
S'contains(window)'
p1440
I00
sS'contains(checkout)'
p1441
I00
sS'contains(site)'
p1442
I00
sS'contains(cart)'
p1443
I00
sS'contains(login)'
p1444
I00
sS'contains(iphon)'
p1445
I00
sS'contains(reset)'
p1446
I00
sS'contains(payment)'
p1447
I00
sS'contains(signup)'
p1448
I00
sS'contains(websit)'
p1449
I00
sS'contains(product)'
p1450
I00
sS'contains(app)'
p1451
I00
sS'contains(replac)'
p1452
I00
sS'contains(status)'
p1453
I00
sS'contains(web)'
p1454
I00
sS'contains(android)'
p1455
I00
sS'contains(otp)'
p1456
I00
sS'contains(io)'
p1457
I00
sS'contains(cancel)'
p1458
I01
sg30
I22
sS'contains(browser)'
p1459
I00
sS'contains(order)'
p1460
I01
sS'contains(brows)'
p1461
I00
sS'contains(search)'
p1462
I00
sS'contains(refund)'
p1463
I00
sS'contains(password)'
p1464
I00
sVself_serve
p1465
tp1466
a((dp1467
S'contains(window)'
p1468
I00
sS'contains(checkout)'
p1469
I00
sS'contains(site)'
p1470
I00
sS'contains(cart)'
p1471
I00
sS'contains(login)'
p1472
I00
sS'contains(iphon)'
p1473
I00
sS'contains(reset)'
p1474
I00
sS'contains(payment)'
p1475
I00
sS'contains(signup)'
p1476
I00
sS'contains(websit)'
p1477
I00
sS'contains(product)'
p1478
I00
sS'contains(app)'
p1479
I01
sS'contains(replac)'
p1480
I00
sS'contains(status)'
p1481
I00
sS'contains(web)'
p1482
I00
sS'contains(android)'
p1483
I00
sS'contains(otp)'
p1484
I00
sS'contains(io)'
p1485
I00
sS'contains(cancel)'
p1486
I00
sg30
I9
sS'contains(browser)'
p1487
I00
sS'contains(order)'
p1488
I00
sS'contains(brows)'
p1489
I00
sS'contains(search)'
p1490
I00
sS'contains(refund)'
p1491
I00
sS'contains(password)'
p1492
I00
sVapp
p1493
tp1494
a((dp1495
S'contains(window)'
p1496
I00
sS'contains(checkout)'
p1497
I00
sS'contains(site)'
p1498
I00
sS'contains(cart)'
p1499
I00
sS'contains(login)'
p1500
I00
sS'contains(iphon)'
p1501
I00
sS'contains(reset)'
p1502
I00
sS'contains(payment)'
p1503
I00
sS'contains(signup)'
p1504
I00
sS'contains(websit)'
p1505
I00
sS'contains(product)'
p1506
I00
sS'contains(app)'
p1507
I00
sS'contains(replac)'
p1508
I00
sS'contains(status)'
p1509
I00
sS'contains(web)'
p1510
I00
sS'contains(android)'
p1511
I00
sS'contains(otp)'
p1512
I00
sS'contains(io)'
p1513
I00
sS'contains(cancel)'
p1514
I00
sg30
I8
sS'contains(browser)'
p1515
I00
sS'contains(order)'
p1516
I00
sS'contains(brows)'
p1517
I00
sS'contains(search)'
p1518
I00
sS'contains(refund)'
p1519
I00
sS'contains(password)'
p1520
I00
sVgeneral
p1521
tp1522
a((dp1523
S'contains(window)'
p1524
I00
sS'contains(checkout)'
p1525
I00
sS'contains(site)'
p1526
I00
sS'contains(cart)'
p1527
I00
sS'contains(login)'
p1528
I00
sS'contains(iphon)'
p1529
I00
sS'contains(reset)'
p1530
I00
sS'contains(payment)'
p1531
I00
sS'contains(signup)'
p1532
I00
sS'contains(websit)'
p1533
I00
sS'contains(product)'
p1534
I00
sS'contains(app)'
p1535
I00
sS'contains(replac)'
p1536
I00
sS'contains(status)'
p1537
I00
sS'contains(web)'
p1538
I00
sS'contains(android)'
p1539
I00
sS'contains(otp)'
p1540
I00
sS'contains(io)'
p1541
I00
sS'contains(cancel)'
p1542
I00
sg30
I18
sS'contains(browser)'
p1543
I00
sS'contains(order)'
p1544
I01
sS'contains(brows)'
p1545
I00
sS'contains(search)'
p1546
I00
sS'contains(refund)'
p1547
I01
sS'contains(password)'
p1548
I00
sVself_serve
p1549
tp1550
a((dp1551
S'contains(window)'
p1552
I00
sS'contains(checkout)'
p1553
I00
sS'contains(site)'
p1554
I00
sS'contains(cart)'
p1555
I00
sS'contains(login)'
p1556
I00
sS'contains(iphon)'
p1557
I00
sS'contains(reset)'
p1558
I00
sS'contains(payment)'
p1559
I00
sS'contains(signup)'
p1560
I00
sS'contains(websit)'
p1561
I00
sS'contains(product)'
p1562
I00
sS'contains(app)'
p1563
I01
sS'contains(replac)'
p1564
I00
sS'contains(status)'
p1565
I00
sS'contains(web)'
p1566
I00
sS'contains(android)'
p1567
I00
sS'contains(otp)'
p1568
I00
sS'contains(io)'
p1569
I00
sS'contains(cancel)'
p1570
I00
sg30
I18
sS'contains(browser)'
p1571
I00
sS'contains(order)'
p1572
I00
sS'contains(brows)'
p1573
I00
sS'contains(search)'
p1574
I00
sS'contains(refund)'
p1575
I00
sS'contains(password)'
p1576
I00
sVapp
p1577
tp1578
a((dp1579
S'contains(window)'
p1580
I00
sS'contains(checkout)'
p1581
I00
sS'contains(site)'
p1582
I00
sS'contains(cart)'
p1583
I00
sS'contains(login)'
p1584
I00
sS'contains(iphon)'
p1585
I00
sS'contains(reset)'
p1586
I00
sS'contains(payment)'
p1587
I00
sS'contains(signup)'
p1588
I00
sS'contains(websit)'
p1589
I00
sS'contains(product)'
p1590
I00
sS'contains(app)'
p1591
I00
sS'contains(replac)'
p1592
I00
sS'contains(status)'
p1593
I00
sS'contains(web)'
p1594
I00
sS'contains(android)'
p1595
I00
sS'contains(otp)'
p1596
I00
sS'contains(io)'
p1597
I00
sS'contains(cancel)'
p1598
I00
sg30
I13
sS'contains(browser)'
p1599
I00
sS'contains(order)'
p1600
I00
sS'contains(brows)'
p1601
I00
sS'contains(search)'
p1602
I00
sS'contains(refund)'
p1603
I00
sS'contains(password)'
p1604
I00
sVpromotions
p1605
tp1606
a((dp1607
S'contains(window)'
p1608
I00
sS'contains(checkout)'
p1609
I00
sS'contains(site)'
p1610
I00
sS'contains(cart)'
p1611
I00
sS'contains(login)'
p1612
I00
sS'contains(iphon)'
p1613
I00
sS'contains(reset)'
p1614
I00
sS'contains(payment)'
p1615
I00
sS'contains(signup)'
p1616
I00
sS'contains(websit)'
p1617
I00
sS'contains(product)'
p1618
I00
sS'contains(app)'
p1619
I00
sS'contains(replac)'
p1620
I00
sS'contains(status)'
p1621
I00
sS'contains(web)'
p1622
I00
sS'contains(android)'
p1623
I00
sS'contains(otp)'
p1624
I00
sS'contains(io)'
p1625
I00
sS'contains(cancel)'
p1626
I00
sg30
I6
sS'contains(browser)'
p1627
I00
sS'contains(order)'
p1628
I00
sS'contains(brows)'
p1629
I00
sS'contains(search)'
p1630
I00
sS'contains(refund)'
p1631
I00
sS'contains(password)'
p1632
I00
sVpromotions
p1633
tp1634
a((dp1635
S'contains(window)'
p1636
I00
sS'contains(checkout)'
p1637
I00
sS'contains(site)'
p1638
I00
sS'contains(cart)'
p1639
I00
sS'contains(login)'
p1640
I00
sS'contains(iphon)'
p1641
I00
sS'contains(reset)'
p1642
I00
sS'contains(payment)'
p1643
I00
sS'contains(signup)'
p1644
I00
sS'contains(websit)'
p1645
I00
sS'contains(product)'
p1646
I01
sS'contains(app)'
p1647
I00
sS'contains(replac)'
p1648
I00
sS'contains(status)'
p1649
I00
sS'contains(web)'
p1650
I00
sS'contains(android)'
p1651
I00
sS'contains(otp)'
p1652
I00
sS'contains(io)'
p1653
I00
sS'contains(cancel)'
p1654
I00
sg30
I18
sS'contains(browser)'
p1655
I00
sS'contains(order)'
p1656
I00
sS'contains(brows)'
p1657
I00
sS'contains(search)'
p1658
I00
sS'contains(refund)'
p1659
I00
sS'contains(password)'
p1660
I00
sVwarehouse
p1661
tp1662
a((dp1663
S'contains(window)'
p1664
I00
sS'contains(checkout)'
p1665
I00
sS'contains(site)'
p1666
I00
sS'contains(cart)'
p1667
I00
sS'contains(login)'
p1668
I00
sS'contains(iphon)'
p1669
I00
sS'contains(reset)'
p1670
I00
sS'contains(payment)'
p1671
I00
sS'contains(signup)'
p1672
I00
sS'contains(websit)'
p1673
I00
sS'contains(product)'
p1674
I00
sS'contains(app)'
p1675
I00
sS'contains(replac)'
p1676
I00
sS'contains(status)'
p1677
I00
sS'contains(web)'
p1678
I00
sS'contains(android)'
p1679
I00
sS'contains(otp)'
p1680
I00
sS'contains(io)'
p1681
I00
sS'contains(cancel)'
p1682
I00
sg30
I12
sS'contains(browser)'
p1683
I00
sS'contains(order)'
p1684
I00
sS'contains(brows)'
p1685
I00
sS'contains(search)'
p1686
I00
sS'contains(refund)'
p1687
I00
sS'contains(password)'
p1688
I00
sVpromotions
p1689
tp1690
a((dp1691
S'contains(window)'
p1692
I00
sS'contains(checkout)'
p1693
I00
sS'contains(site)'
p1694
I00
sS'contains(cart)'
p1695
I00
sS'contains(login)'
p1696
I00
sS'contains(iphon)'
p1697
I00
sS'contains(reset)'
p1698
I00
sS'contains(payment)'
p1699
I00
sS'contains(signup)'
p1700
I00
sS'contains(websit)'
p1701
I00
sS'contains(product)'
p1702
I01
sS'contains(app)'
p1703
I00
sS'contains(replac)'
p1704
I00
sS'contains(status)'
p1705
I00
sS'contains(web)'
p1706
I00
sS'contains(android)'
p1707
I00
sS'contains(otp)'
p1708
I00
sS'contains(io)'
p1709
I00
sS'contains(cancel)'
p1710
I00
sg30
I20
sS'contains(browser)'
p1711
I00
sS'contains(order)'
p1712
I00
sS'contains(brows)'
p1713
I00
sS'contains(search)'
p1714
I00
sS'contains(refund)'
p1715
I01
sS'contains(password)'
p1716
I00
sVself_serve
p1717
tp1718
a((dp1719
S'contains(window)'
p1720
I00
sS'contains(checkout)'
p1721
I00
sS'contains(site)'
p1722
I00
sS'contains(cart)'
p1723
I00
sS'contains(login)'
p1724
I00
sS'contains(iphon)'
p1725
I00
sS'contains(reset)'
p1726
I00
sS'contains(payment)'
p1727
I00
sS'contains(signup)'
p1728
I00
sS'contains(websit)'
p1729
I00
sS'contains(product)'
p1730
I00
sS'contains(app)'
p1731
I00
sS'contains(replac)'
p1732
I00
sS'contains(status)'
p1733
I00
sS'contains(web)'
p1734
I00
sS'contains(android)'
p1735
I00
sS'contains(otp)'
p1736
I00
sS'contains(io)'
p1737
I00
sS'contains(cancel)'
p1738
I00
sg30
I10
sS'contains(browser)'
p1739
I00
sS'contains(order)'
p1740
I00
sS'contains(brows)'
p1741
I00
sS'contains(search)'
p1742
I00
sS'contains(refund)'
p1743
I00
sS'contains(password)'
p1744
I00
sVgeneral
p1745
tp1746
a((dp1747
S'contains(window)'
p1748
I00
sS'contains(checkout)'
p1749
I00
sS'contains(site)'
p1750
I00
sS'contains(cart)'
p1751
I00
sS'contains(login)'
p1752
I00
sS'contains(iphon)'
p1753
I00
sS'contains(reset)'
p1754
I00
sS'contains(payment)'
p1755
I00
sS'contains(signup)'
p1756
I00
sS'contains(websit)'
p1757
I00
sS'contains(product)'
p1758
I00
sS'contains(app)'
p1759
I00
sS'contains(replac)'
p1760
I00
sS'contains(status)'
p1761
I00
sS'contains(web)'
p1762
I00
sS'contains(android)'
p1763
I00
sS'contains(otp)'
p1764
I00
sS'contains(io)'
p1765
I00
sS'contains(cancel)'
p1766
I00
sg30
I19
sS'contains(browser)'
p1767
I00
sS'contains(order)'
p1768
I00
sS'contains(brows)'
p1769
I00
sS'contains(search)'
p1770
I00
sS'contains(refund)'
p1771
I00
sS'contains(password)'
p1772
I00
sVpe
p1773
tp1774
a((dp1775
S'contains(window)'
p1776
I00
sS'contains(checkout)'
p1777
I00
sS'contains(site)'
p1778
I00
sS'contains(cart)'
p1779
I00
sS'contains(login)'
p1780
I00
sS'contains(iphon)'
p1781
I00
sS'contains(reset)'
p1782
I00
sS'contains(payment)'
p1783
I00
sS'contains(signup)'
p1784
I00
sS'contains(websit)'
p1785
I00
sS'contains(product)'
p1786
I00
sS'contains(app)'
p1787
I00
sS'contains(replac)'
p1788
I00
sS'contains(status)'
p1789
I00
sS'contains(web)'
p1790
I00
sS'contains(android)'
p1791
I00
sS'contains(otp)'
p1792
I00
sS'contains(io)'
p1793
I00
sS'contains(cancel)'
p1794
I00
sg30
I19
sS'contains(browser)'
p1795
I00
sS'contains(order)'
p1796
I00
sS'contains(brows)'
p1797
I00
sS'contains(search)'
p1798
I00
sS'contains(refund)'
p1799
I00
sS'contains(password)'
p1800
I00
sVgeneral
p1801
tp1802
a((dp1803
S'contains(window)'
p1804
I00
sS'contains(checkout)'
p1805
I00
sS'contains(site)'
p1806
I00
sS'contains(cart)'
p1807
I00
sS'contains(login)'
p1808
I00
sS'contains(iphon)'
p1809
I00
sS'contains(reset)'
p1810
I00
sS'contains(payment)'
p1811
I00
sS'contains(signup)'
p1812
I00
sS'contains(websit)'
p1813
I00
sS'contains(product)'
p1814
I00
sS'contains(app)'
p1815
I00
sS'contains(replac)'
p1816
I00
sS'contains(status)'
p1817
I00
sS'contains(web)'
p1818
I00
sS'contains(android)'
p1819
I00
sS'contains(otp)'
p1820
I00
sS'contains(io)'
p1821
I00
sS'contains(cancel)'
p1822
I00
sg30
I19
sS'contains(browser)'
p1823
I00
sS'contains(order)'
p1824
I00
sS'contains(brows)'
p1825
I00
sS'contains(search)'
p1826
I00
sS'contains(refund)'
p1827
I00
sS'contains(password)'
p1828
I00
sVsupply_chain
p1829
tp1830
a((dp1831
S'contains(window)'
p1832
I00
sS'contains(checkout)'
p1833
I00
sS'contains(site)'
p1834
I00
sS'contains(cart)'
p1835
I00
sS'contains(login)'
p1836
I00
sS'contains(iphon)'
p1837
I00
sS'contains(reset)'
p1838
I00
sS'contains(payment)'
p1839
I00
sS'contains(signup)'
p1840
I00
sS'contains(websit)'
p1841
I00
sS'contains(product)'
p1842
I00
sS'contains(app)'
p1843
I00
sS'contains(replac)'
p1844
I00
sS'contains(status)'
p1845
I00
sS'contains(web)'
p1846
I00
sS'contains(android)'
p1847
I00
sS'contains(otp)'
p1848
I00
sS'contains(io)'
p1849
I00
sS'contains(cancel)'
p1850
I00
sg30
I21
sS'contains(browser)'
p1851
I00
sS'contains(order)'
p1852
I00
sS'contains(brows)'
p1853
I00
sS'contains(search)'
p1854
I00
sS'contains(refund)'
p1855
I00
sS'contains(password)'
p1856
I00
sVself_serve
p1857
tp1858
a((dp1859
S'contains(window)'
p1860
I00
sS'contains(checkout)'
p1861
I00
sS'contains(site)'
p1862
I00
sS'contains(cart)'
p1863
I00
sS'contains(login)'
p1864
I00
sS'contains(iphon)'
p1865
I00
sS'contains(reset)'
p1866
I00
sS'contains(payment)'
p1867
I00
sS'contains(signup)'
p1868
I00
sS'contains(websit)'
p1869
I00
sS'contains(product)'
p1870
I00
sS'contains(app)'
p1871
I01
sS'contains(replac)'
p1872
I00
sS'contains(status)'
p1873
I00
sS'contains(web)'
p1874
I00
sS'contains(android)'
p1875
I00
sS'contains(otp)'
p1876
I00
sS'contains(io)'
p1877
I00
sS'contains(cancel)'
p1878
I00
sg30
I18
sS'contains(browser)'
p1879
I00
sS'contains(order)'
p1880
I00
sS'contains(brows)'
p1881
I00
sS'contains(search)'
p1882
I00
sS'contains(refund)'
p1883
I00
sS'contains(password)'
p1884
I00
sVapp
p1885
tp1886
a((dp1887
S'contains(window)'
p1888
I00
sS'contains(checkout)'
p1889
I00
sS'contains(site)'
p1890
I00
sS'contains(cart)'
p1891
I00
sS'contains(login)'
p1892
I00
sS'contains(iphon)'
p1893
I00
sS'contains(reset)'
p1894
I00
sS'contains(payment)'
p1895
I00
sS'contains(signup)'
p1896
I00
sS'contains(websit)'
p1897
I00
sS'contains(product)'
p1898
I00
sS'contains(app)'
p1899
I00
sS'contains(replac)'
p1900
I00
sS'contains(status)'
p1901
I00
sS'contains(web)'
p1902
I00
sS'contains(android)'
p1903
I00
sS'contains(otp)'
p1904
I00
sS'contains(io)'
p1905
I00
sS'contains(cancel)'
p1906
I00
sg30
I18
sS'contains(browser)'
p1907
I00
sS'contains(order)'
p1908
I00
sS'contains(brows)'
p1909
I00
sS'contains(search)'
p1910
I00
sS'contains(refund)'
p1911
I00
sS'contains(password)'
p1912
I00
sVsupply_chain
p1913
tp1914
a((dp1915
S'contains(window)'
p1916
I00
sS'contains(checkout)'
p1917
I00
sS'contains(site)'
p1918
I00
sS'contains(cart)'
p1919
I00
sS'contains(login)'
p1920
I00
sS'contains(iphon)'
p1921
I00
sS'contains(reset)'
p1922
I00
sS'contains(payment)'
p1923
I00
sS'contains(signup)'
p1924
I00
sS'contains(websit)'
p1925
I00
sS'contains(product)'
p1926
I00
sS'contains(app)'
p1927
I00
sS'contains(replac)'
p1928
I00
sS'contains(status)'
p1929
I00
sS'contains(web)'
p1930
I00
sS'contains(android)'
p1931
I00
sS'contains(otp)'
p1932
I00
sS'contains(io)'
p1933
I00
sS'contains(cancel)'
p1934
I00
sg30
I16
sS'contains(browser)'
p1935
I00
sS'contains(order)'
p1936
I00
sS'contains(brows)'
p1937
I00
sS'contains(search)'
p1938
I00
sS'contains(refund)'
p1939
I00
sS'contains(password)'
p1940
I00
sVgeneral
p1941
tp1942
a((dp1943
S'contains(window)'
p1944
I00
sS'contains(checkout)'
p1945
I00
sS'contains(site)'
p1946
I00
sS'contains(cart)'
p1947
I00
sS'contains(login)'
p1948
I00
sS'contains(iphon)'
p1949
I00
sS'contains(reset)'
p1950
I00
sS'contains(payment)'
p1951
I00
sS'contains(signup)'
p1952
I00
sS'contains(websit)'
p1953
I00
sS'contains(product)'
p1954
I00
sS'contains(app)'
p1955
I00
sS'contains(replac)'
p1956
I00
sS'contains(status)'
p1957
I00
sS'contains(web)'
p1958
I00
sS'contains(android)'
p1959
I00
sS'contains(otp)'
p1960
I00
sS'contains(io)'
p1961
I00
sS'contains(cancel)'
p1962
I00
sg30
I21
sS'contains(browser)'
p1963
I00
sS'contains(order)'
p1964
I00
sS'contains(brows)'
p1965
I00
sS'contains(search)'
p1966
I00
sS'contains(refund)'
p1967
I00
sS'contains(password)'
p1968
I00
sVsupply_chain
p1969
tp1970
a((dp1971
S'contains(window)'
p1972
I00
sS'contains(checkout)'
p1973
I00
sS'contains(site)'
p1974
I00
sS'contains(cart)'
p1975
I00
sS'contains(login)'
p1976
I00
sS'contains(iphon)'
p1977
I00
sS'contains(reset)'
p1978
I00
sS'contains(payment)'
p1979
I00
sS'contains(signup)'
p1980
I00
sS'contains(websit)'
p1981
I00
sS'contains(product)'
p1982
I00
sS'contains(app)'
p1983
I00
sS'contains(replac)'
p1984
I00
sS'contains(status)'
p1985
I00
sS'contains(web)'
p1986
I00
sS'contains(android)'
p1987
I00
sS'contains(otp)'
p1988
I00
sS'contains(io)'
p1989
I00
sS'contains(cancel)'
p1990
I00
sg30
I17
sS'contains(browser)'
p1991
I00
sS'contains(order)'
p1992
I00
sS'contains(brows)'
p1993
I00
sS'contains(search)'
p1994
I00
sS'contains(refund)'
p1995
I00
sS'contains(password)'
p1996
I00
sVgeneral
p1997
tp1998
a((dp1999
S'contains(window)'
p2000
I00
sS'contains(checkout)'
p2001
I00
sS'contains(site)'
p2002
I00
sS'contains(cart)'
p2003
I00
sS'contains(login)'
p2004
I00
sS'contains(iphon)'
p2005
I00
sS'contains(reset)'
p2006
I00
sS'contains(payment)'
p2007
I00
sS'contains(signup)'
p2008
I00
sS'contains(websit)'
p2009
I00
sS'contains(product)'
p2010
I00
sS'contains(app)'
p2011
I00
sS'contains(replac)'
p2012
I00
sS'contains(status)'
p2013
I00
sS'contains(web)'
p2014
I00
sS'contains(android)'
p2015
I00
sS'contains(otp)'
p2016
I00
sS'contains(io)'
p2017
I00
sS'contains(cancel)'
p2018
I00
sg30
I12
sS'contains(browser)'
p2019
I00
sS'contains(order)'
p2020
I00
sS'contains(brows)'
p2021
I00
sS'contains(search)'
p2022
I00
sS'contains(refund)'
p2023
I00
sS'contains(password)'
p2024
I00
sVgeneral
p2025
tp2026
a((dp2027
S'contains(window)'
p2028
I00
sS'contains(checkout)'
p2029
I00
sS'contains(site)'
p2030
I00
sS'contains(cart)'
p2031
I00
sS'contains(login)'
p2032
I00
sS'contains(iphon)'
p2033
I00
sS'contains(reset)'
p2034
I00
sS'contains(payment)'
p2035
I00
sS'contains(signup)'
p2036
I00
sS'contains(websit)'
p2037
I00
sS'contains(product)'
p2038
I00
sS'contains(app)'
p2039
I00
sS'contains(replac)'
p2040
I00
sS'contains(status)'
p2041
I00
sS'contains(web)'
p2042
I00
sS'contains(android)'
p2043
I00
sS'contains(otp)'
p2044
I00
sS'contains(io)'
p2045
I00
sS'contains(cancel)'
p2046
I00
sg30
I16
sS'contains(browser)'
p2047
I00
sS'contains(order)'
p2048
I01
sS'contains(brows)'
p2049
I00
sS'contains(search)'
p2050
I00
sS'contains(refund)'
p2051
I00
sS'contains(password)'
p2052
I00
sVtransact
p2053
tp2054
a((dp2055
S'contains(window)'
p2056
I00
sS'contains(checkout)'
p2057
I00
sS'contains(site)'
p2058
I00
sS'contains(cart)'
p2059
I00
sS'contains(login)'
p2060
I00
sS'contains(iphon)'
p2061
I00
sS'contains(reset)'
p2062
I00
sS'contains(payment)'
p2063
I00
sS'contains(signup)'
p2064
I00
sS'contains(websit)'
p2065
I00
sS'contains(product)'
p2066
I00
sS'contains(app)'
p2067
I00
sS'contains(replac)'
p2068
I00
sS'contains(status)'
p2069
I00
sS'contains(web)'
p2070
I00
sS'contains(android)'
p2071
I00
sS'contains(otp)'
p2072
I00
sS'contains(io)'
p2073
I00
sS'contains(cancel)'
p2074
I00
sg30
I22
sS'contains(browser)'
p2075
I00
sS'contains(order)'
p2076
I00
sS'contains(brows)'
p2077
I00
sS'contains(search)'
p2078
I00
sS'contains(refund)'
p2079
I00
sS'contains(password)'
p2080
I00
sVgeneral
p2081
tp2082
a((dp2083
S'contains(window)'
p2084
I00
sS'contains(checkout)'
p2085
I00
sS'contains(site)'
p2086
I00
sS'contains(cart)'
p2087
I00
sS'contains(login)'
p2088
I00
sS'contains(iphon)'
p2089
I00
sS'contains(reset)'
p2090
I00
sS'contains(payment)'
p2091
I00
sS'contains(signup)'
p2092
I00
sS'contains(websit)'
p2093
I00
sS'contains(product)'
p2094
I00
sS'contains(app)'
p2095
I00
sS'contains(replac)'
p2096
I00
sS'contains(status)'
p2097
I00
sS'contains(web)'
p2098
I00
sS'contains(android)'
p2099
I00
sS'contains(otp)'
p2100
I00
sS'contains(io)'
p2101
I00
sS'contains(cancel)'
p2102
I00
sg30
I16
sS'contains(browser)'
p2103
I00
sS'contains(order)'
p2104
I00
sS'contains(brows)'
p2105
I00
sS'contains(search)'
p2106
I00
sS'contains(refund)'
p2107
I00
sS'contains(password)'
p2108
I00
sVpricing
p2109
tp2110
a((dp2111
S'contains(window)'
p2112
I00
sS'contains(checkout)'
p2113
I00
sS'contains(site)'
p2114
I00
sS'contains(cart)'
p2115
I00
sS'contains(login)'
p2116
I00
sS'contains(iphon)'
p2117
I00
sS'contains(reset)'
p2118
I00
sS'contains(payment)'
p2119
I00
sS'contains(signup)'
p2120
I00
sS'contains(websit)'
p2121
I00
sS'contains(product)'
p2122
I00
sS'contains(app)'
p2123
I00
sS'contains(replac)'
p2124
I00
sS'contains(status)'
p2125
I00
sS'contains(web)'
p2126
I00
sS'contains(android)'
p2127
I00
sS'contains(otp)'
p2128
I00
sS'contains(io)'
p2129
I00
sS'contains(cancel)'
p2130
I00
sg30
I19
sS'contains(browser)'
p2131
I00
sS'contains(order)'
p2132
I00
sS'contains(brows)'
p2133
I00
sS'contains(search)'
p2134
I00
sS'contains(refund)'
p2135
I00
sS'contains(password)'
p2136
I00
sVpromotions
p2137
tp2138
a((dp2139
S'contains(window)'
p2140
I00
sS'contains(checkout)'
p2141
I00
sS'contains(site)'
p2142
I00
sS'contains(cart)'
p2143
I00
sS'contains(login)'
p2144
I00
sS'contains(iphon)'
p2145
I00
sS'contains(reset)'
p2146
I00
sS'contains(payment)'
p2147
I00
sS'contains(signup)'
p2148
I00
sS'contains(websit)'
p2149
I00
sS'contains(product)'
p2150
I00
sS'contains(app)'
p2151
I00
sS'contains(replac)'
p2152
I00
sS'contains(status)'
p2153
I00
sS'contains(web)'
p2154
I00
sS'contains(android)'
p2155
I00
sS'contains(otp)'
p2156
I00
sS'contains(io)'
p2157
I00
sS'contains(cancel)'
p2158
I01
sg30
I26
sS'contains(browser)'
p2159
I00
sS'contains(order)'
p2160
I01
sS'contains(brows)'
p2161
I00
sS'contains(search)'
p2162
I00
sS'contains(refund)'
p2163
I01
sS'contains(password)'
p2164
I00
sVself_serve
p2165
tp2166
a((dp2167
S'contains(window)'
p2168
I00
sS'contains(checkout)'
p2169
I00
sS'contains(site)'
p2170
I00
sS'contains(cart)'
p2171
I00
sS'contains(login)'
p2172
I00
sS'contains(iphon)'
p2173
I00
sS'contains(reset)'
p2174
I00
sS'contains(payment)'
p2175
I00
sS'contains(signup)'
p2176
I00
sS'contains(websit)'
p2177
I00
sS'contains(product)'
p2178
I00
sS'contains(app)'
p2179
I00
sS'contains(replac)'
p2180
I00
sS'contains(status)'
p2181
I00
sS'contains(web)'
p2182
I00
sS'contains(android)'
p2183
I00
sS'contains(otp)'
p2184
I00
sS'contains(io)'
p2185
I00
sS'contains(cancel)'
p2186
I00
sg30
I18
sS'contains(browser)'
p2187
I00
sS'contains(order)'
p2188
I01
sS'contains(brows)'
p2189
I00
sS'contains(search)'
p2190
I00
sS'contains(refund)'
p2191
I00
sS'contains(password)'
p2192
I00
sVapp
p2193
tp2194
a((dp2195
S'contains(window)'
p2196
I00
sS'contains(checkout)'
p2197
I00
sS'contains(site)'
p2198
I00
sS'contains(cart)'
p2199
I00
sS'contains(login)'
p2200
I00
sS'contains(iphon)'
p2201
I00
sS'contains(reset)'
p2202
I00
sS'contains(payment)'
p2203
I00
sS'contains(signup)'
p2204
I00
sS'contains(websit)'
p2205
I00
sS'contains(product)'
p2206
I00
sS'contains(app)'
p2207
I00
sS'contains(replac)'
p2208
I00
sS'contains(status)'
p2209
I00
sS'contains(web)'
p2210
I00
sS'contains(android)'
p2211
I00
sS'contains(otp)'
p2212
I00
sS'contains(io)'
p2213
I00
sS'contains(cancel)'
p2214
I00
sg30
I21
sS'contains(browser)'
p2215
I00
sS'contains(order)'
p2216
I00
sS'contains(brows)'
p2217
I00
sS'contains(search)'
p2218
I00
sS'contains(refund)'
p2219
I00
sS'contains(password)'
p2220
I00
sVsupply_chain
p2221
tp2222
a((dp2223
S'contains(window)'
p2224
I00
sS'contains(checkout)'
p2225
I00
sS'contains(site)'
p2226
I00
sS'contains(cart)'
p2227
I00
sS'contains(login)'
p2228
I00
sS'contains(iphon)'
p2229
I00
sS'contains(reset)'
p2230
I00
sS'contains(payment)'
p2231
I00
sS'contains(signup)'
p2232
I00
sS'contains(websit)'
p2233
I00
sS'contains(product)'
p2234
I00
sS'contains(app)'
p2235
I00
sS'contains(replac)'
p2236
I00
sS'contains(status)'
p2237
I00
sS'contains(web)'
p2238
I00
sS'contains(android)'
p2239
I00
sS'contains(otp)'
p2240
I00
sS'contains(io)'
p2241
I00
sS'contains(cancel)'
p2242
I00
sg30
I22
sS'contains(browser)'
p2243
I00
sS'contains(order)'
p2244
I00
sS'contains(brows)'
p2245
I00
sS'contains(search)'
p2246
I00
sS'contains(refund)'
p2247
I01
sS'contains(password)'
p2248
I00
sVsupply_chain
p2249
tp2250
a((dp2251
S'contains(window)'
p2252
I00
sS'contains(checkout)'
p2253
I00
sS'contains(site)'
p2254
I00
sS'contains(cart)'
p2255
I00
sS'contains(login)'
p2256
I00
sS'contains(iphon)'
p2257
I00
sS'contains(reset)'
p2258
I00
sS'contains(payment)'
p2259
I00
sS'contains(signup)'
p2260
I00
sS'contains(websit)'
p2261
I00
sS'contains(product)'
p2262
I00
sS'contains(app)'
p2263
I00
sS'contains(replac)'
p2264
I00
sS'contains(status)'
p2265
I00
sS'contains(web)'
p2266
I00
sS'contains(android)'
p2267
I00
sS'contains(otp)'
p2268
I00
sS'contains(io)'
p2269
I00
sS'contains(cancel)'
p2270
I00
sg30
I13
sS'contains(browser)'
p2271
I00
sS'contains(order)'
p2272
I00
sS'contains(brows)'
p2273
I00
sS'contains(search)'
p2274
I00
sS'contains(refund)'
p2275
I00
sS'contains(password)'
p2276
I00
sVgeneral
p2277
tp2278
a((dp2279
S'contains(window)'
p2280
I00
sS'contains(checkout)'
p2281
I00
sS'contains(site)'
p2282
I00
sS'contains(cart)'
p2283
I00
sS'contains(login)'
p2284
I00
sS'contains(iphon)'
p2285
I00
sS'contains(reset)'
p2286
I00
sS'contains(payment)'
p2287
I00
sS'contains(signup)'
p2288
I00
sS'contains(websit)'
p2289
I00
sS'contains(product)'
p2290
I00
sS'contains(app)'
p2291
I00
sS'contains(replac)'
p2292
I00
sS'contains(status)'
p2293
I00
sS'contains(web)'
p2294
I00
sS'contains(android)'
p2295
I00
sS'contains(otp)'
p2296
I00
sS'contains(io)'
p2297
I00
sS'contains(cancel)'
p2298
I00
sg30
I18
sS'contains(browser)'
p2299
I00
sS'contains(order)'
p2300
I00
sS'contains(brows)'
p2301
I00
sS'contains(search)'
p2302
I00
sS'contains(refund)'
p2303
I00
sS'contains(password)'
p2304
I00
sVdoctype
p2305
tp2306
a((dp2307
S'contains(window)'
p2308
I00
sS'contains(checkout)'
p2309
I00
sS'contains(site)'
p2310
I00
sS'contains(cart)'
p2311
I00
sS'contains(login)'
p2312
I00
sS'contains(iphon)'
p2313
I00
sS'contains(reset)'
p2314
I00
sS'contains(payment)'
p2315
I00
sS'contains(signup)'
p2316
I00
sS'contains(websit)'
p2317
I00
sS'contains(product)'
p2318
I00
sS'contains(app)'
p2319
I00
sS'contains(replac)'
p2320
I00
sS'contains(status)'
p2321
I00
sS'contains(web)'
p2322
I00
sS'contains(android)'
p2323
I00
sS'contains(otp)'
p2324
I00
sS'contains(io)'
p2325
I00
sS'contains(cancel)'
p2326
I00
sg30
I6
sS'contains(browser)'
p2327
I00
sS'contains(order)'
p2328
I00
sS'contains(brows)'
p2329
I00
sS'contains(search)'
p2330
I00
sS'contains(refund)'
p2331
I00
sS'contains(password)'
p2332
I00
sVpromotions
p2333
tp2334
a((dp2335
S'contains(window)'
p2336
I00
sS'contains(checkout)'
p2337
I00
sS'contains(site)'
p2338
I00
sS'contains(cart)'
p2339
I00
sS'contains(login)'
p2340
I00
sS'contains(iphon)'
p2341
I00
sS'contains(reset)'
p2342
I00
sS'contains(payment)'
p2343
I00
sS'contains(signup)'
p2344
I00
sS'contains(websit)'
p2345
I00
sS'contains(product)'
p2346
I00
sS'contains(app)'
p2347
I00
sS'contains(replac)'
p2348
I00
sS'contains(status)'
p2349
I00
sS'contains(web)'
p2350
I00
sS'contains(android)'
p2351
I00
sS'contains(otp)'
p2352
I00
sS'contains(io)'
p2353
I00
sS'contains(cancel)'
p2354
I00
sg30
I19
sS'contains(browser)'
p2355
I00
sS'contains(order)'
p2356
I00
sS'contains(brows)'
p2357
I00
sS'contains(search)'
p2358
I00
sS'contains(refund)'
p2359
I00
sS'contains(password)'
p2360
I00
sVwarehouse
p2361
tp2362
a((dp2363
S'contains(window)'
p2364
I00
sS'contains(checkout)'
p2365
I00
sS'contains(site)'
p2366
I00
sS'contains(cart)'
p2367
I00
sS'contains(login)'
p2368
I00
sS'contains(iphon)'
p2369
I00
sS'contains(reset)'
p2370
I00
sS'contains(payment)'
p2371
I00
sS'contains(signup)'
p2372
I00
sS'contains(websit)'
p2373
I00
sS'contains(product)'
p2374
I00
sS'contains(app)'
p2375
I00
sS'contains(replac)'
p2376
I00
sS'contains(status)'
p2377
I00
sS'contains(web)'
p2378
I00
sS'contains(android)'
p2379
I00
sS'contains(otp)'
p2380
I00
sS'contains(io)'
p2381
I00
sS'contains(cancel)'
p2382
I01
sg30
I16
sS'contains(browser)'
p2383
I00
sS'contains(order)'
p2384
I01
sS'contains(brows)'
p2385
I00
sS'contains(search)'
p2386
I00
sS'contains(refund)'
p2387
I00
sS'contains(password)'
p2388
I00
sVself_serve
p2389
tp2390
a((dp2391
S'contains(window)'
p2392
I00
sS'contains(checkout)'
p2393
I00
sS'contains(site)'
p2394
I00
sS'contains(cart)'
p2395
I00
sS'contains(login)'
p2396
I00
sS'contains(iphon)'
p2397
I00
sS'contains(reset)'
p2398
I00
sS'contains(payment)'
p2399
I00
sS'contains(signup)'
p2400
I00
sS'contains(websit)'
p2401
I00
sS'contains(product)'
p2402
I00
sS'contains(app)'
p2403
I01
sS'contains(replac)'
p2404
I00
sS'contains(status)'
p2405
I00
sS'contains(web)'
p2406
I00
sS'contains(android)'
p2407
I00
sS'contains(otp)'
p2408
I00
sS'contains(io)'
p2409
I00
sS'contains(cancel)'
p2410
I00
sg30
I11
sS'contains(browser)'
p2411
I00
sS'contains(order)'
p2412
I00
sS'contains(brows)'
p2413
I00
sS'contains(search)'
p2414
I00
sS'contains(refund)'
p2415
I00
sS'contains(password)'
p2416
I00
sVapp
p2417
tp2418
a((dp2419
S'contains(window)'
p2420
I00
sS'contains(checkout)'
p2421
I00
sS'contains(site)'
p2422
I00
sS'contains(cart)'
p2423
I00
sS'contains(login)'
p2424
I00
sS'contains(iphon)'
p2425
I00
sS'contains(reset)'
p2426
I00
sS'contains(payment)'
p2427
I00
sS'contains(signup)'
p2428
I00
sS'contains(websit)'
p2429
I00
sS'contains(product)'
p2430
I00
sS'contains(app)'
p2431
I00
sS'contains(replac)'
p2432
I00
sS'contains(status)'
p2433
I00
sS'contains(web)'
p2434
I00
sS'contains(android)'
p2435
I00
sS'contains(otp)'
p2436
I00
sS'contains(io)'
p2437
I00
sS'contains(cancel)'
p2438
I00
sg30
I13
sS'contains(browser)'
p2439
I00
sS'contains(order)'
p2440
I00
sS'contains(brows)'
p2441
I00
sS'contains(search)'
p2442
I00
sS'contains(refund)'
p2443
I00
sS'contains(password)'
p2444
I00
sVuser_cluster
p2445
tp2446
a((dp2447
S'contains(window)'
p2448
I00
sS'contains(checkout)'
p2449
I00
sS'contains(site)'
p2450
I00
sS'contains(cart)'
p2451
I00
sS'contains(login)'
p2452
I00
sS'contains(iphon)'
p2453
I00
sS'contains(reset)'
p2454
I00
sS'contains(payment)'
p2455
I00
sS'contains(signup)'
p2456
I00
sS'contains(websit)'
p2457
I00
sS'contains(product)'
p2458
I00
sS'contains(app)'
p2459
I00
sS'contains(replac)'
p2460
I00
sS'contains(status)'
p2461
I00
sS'contains(web)'
p2462
I00
sS'contains(android)'
p2463
I00
sS'contains(otp)'
p2464
I00
sS'contains(io)'
p2465
I00
sS'contains(cancel)'
p2466
I00
sg30
I23
sS'contains(browser)'
p2467
I00
sS'contains(order)'
p2468
I01
sS'contains(brows)'
p2469
I00
sS'contains(search)'
p2470
I00
sS'contains(refund)'
p2471
I00
sS'contains(password)'
p2472
I00
sVgeneral
p2473
tp2474
a((dp2475
S'contains(window)'
p2476
I00
sS'contains(checkout)'
p2477
I00
sS'contains(site)'
p2478
I00
sS'contains(cart)'
p2479
I00
sS'contains(login)'
p2480
I00
sS'contains(iphon)'
p2481
I00
sS'contains(reset)'
p2482
I00
sS'contains(payment)'
p2483
I00
sS'contains(signup)'
p2484
I00
sS'contains(websit)'
p2485
I00
sS'contains(product)'
p2486
I01
sS'contains(app)'
p2487
I00
sS'contains(replac)'
p2488
I00
sS'contains(status)'
p2489
I00
sS'contains(web)'
p2490
I00
sS'contains(android)'
p2491
I00
sS'contains(otp)'
p2492
I00
sS'contains(io)'
p2493
I00
sS'contains(cancel)'
p2494
I00
sg30
I17
sS'contains(browser)'
p2495
I00
sS'contains(order)'
p2496
I00
sS'contains(brows)'
p2497
I00
sS'contains(search)'
p2498
I00
sS'contains(refund)'
p2499
I00
sS'contains(password)'
p2500
I00
sVself_serve
p2501
tp2502
a((dp2503
S'contains(window)'
p2504
I00
sS'contains(checkout)'
p2505
I00
sS'contains(site)'
p2506
I00
sS'contains(cart)'
p2507
I00
sS'contains(login)'
p2508
I00
sS'contains(iphon)'
p2509
I00
sS'contains(reset)'
p2510
I00
sS'contains(payment)'
p2511
I00
sS'contains(signup)'
p2512
I00
sS'contains(websit)'
p2513
I00
sS'contains(product)'
p2514
I00
sS'contains(app)'
p2515
I00
sS'contains(replac)'
p2516
I00
sS'contains(status)'
p2517
I00
sS'contains(web)'
p2518
I00
sS'contains(android)'
p2519
I00
sS'contains(otp)'
p2520
I00
sS'contains(io)'
p2521
I00
sS'contains(cancel)'
p2522
I00
sg30
I18
sS'contains(browser)'
p2523
I00
sS'contains(order)'
p2524
I00
sS'contains(brows)'
p2525
I00
sS'contains(search)'
p2526
I00
sS'contains(refund)'
p2527
I00
sS'contains(password)'
p2528
I00
sVgeneral
p2529
tp2530
a((dp2531
S'contains(window)'
p2532
I00
sS'contains(checkout)'
p2533
I00
sS'contains(site)'
p2534
I00
sS'contains(cart)'
p2535
I00
sS'contains(login)'
p2536
I00
sS'contains(iphon)'
p2537
I00
sS'contains(reset)'
p2538
I00
sS'contains(payment)'
p2539
I00
sS'contains(signup)'
p2540
I00
sS'contains(websit)'
p2541
I00
sS'contains(product)'
p2542
I00
sS'contains(app)'
p2543
I00
sS'contains(replac)'
p2544
I00
sS'contains(status)'
p2545
I00
sS'contains(web)'
p2546
I00
sS'contains(android)'
p2547
I00
sS'contains(otp)'
p2548
I00
sS'contains(io)'
p2549
I00
sS'contains(cancel)'
p2550
I00
sg30
I10
sS'contains(browser)'
p2551
I00
sS'contains(order)'
p2552
I00
sS'contains(brows)'
p2553
I00
sS'contains(search)'
p2554
I00
sS'contains(refund)'
p2555
I00
sS'contains(password)'
p2556
I00
sVsupply_chain
p2557
tp2558
a((dp2559
S'contains(window)'
p2560
I00
sS'contains(checkout)'
p2561
I00
sS'contains(site)'
p2562
I00
sS'contains(cart)'
p2563
I00
sS'contains(login)'
p2564
I00
sS'contains(iphon)'
p2565
I00
sS'contains(reset)'
p2566
I00
sS'contains(payment)'
p2567
I00
sS'contains(signup)'
p2568
I00
sS'contains(websit)'
p2569
I00
sS'contains(product)'
p2570
I00
sS'contains(app)'
p2571
I00
sS'contains(replac)'
p2572
I00
sS'contains(status)'
p2573
I00
sS'contains(web)'
p2574
I00
sS'contains(android)'
p2575
I00
sS'contains(otp)'
p2576
I00
sS'contains(io)'
p2577
I00
sS'contains(cancel)'
p2578
I00
sg30
I13
sS'contains(browser)'
p2579
I00
sS'contains(order)'
p2580
I00
sS'contains(brows)'
p2581
I00
sS'contains(search)'
p2582
I00
sS'contains(refund)'
p2583
I00
sS'contains(password)'
p2584
I00
sVgeneral
p2585
tp2586
a((dp2587
S'contains(window)'
p2588
I00
sS'contains(checkout)'
p2589
I00
sS'contains(site)'
p2590
I00
sS'contains(cart)'
p2591
I00
sS'contains(login)'
p2592
I00
sS'contains(iphon)'
p2593
I00
sS'contains(reset)'
p2594
I00
sS'contains(payment)'
p2595
I00
sS'contains(signup)'
p2596
I00
sS'contains(websit)'
p2597
I00
sS'contains(product)'
p2598
I01
sS'contains(app)'
p2599
I00
sS'contains(replac)'
p2600
I00
sS'contains(status)'
p2601
I00
sS'contains(web)'
p2602
I00
sS'contains(android)'
p2603
I00
sS'contains(otp)'
p2604
I00
sS'contains(io)'
p2605
I00
sS'contains(cancel)'
p2606
I00
sg30
I25
sS'contains(browser)'
p2607
I00
sS'contains(order)'
p2608
I01
sS'contains(brows)'
p2609
I00
sS'contains(search)'
p2610
I00
sS'contains(refund)'
p2611
I00
sS'contains(password)'
p2612
I00
sVsupply_chain
p2613
tp2614
a((dp2615
S'contains(window)'
p2616
I00
sS'contains(checkout)'
p2617
I00
sS'contains(site)'
p2618
I00
sS'contains(cart)'
p2619
I00
sS'contains(login)'
p2620
I00
sS'contains(iphon)'
p2621
I00
sS'contains(reset)'
p2622
I00
sS'contains(payment)'
p2623
I00
sS'contains(signup)'
p2624
I00
sS'contains(websit)'
p2625
I00
sS'contains(product)'
p2626
I00
sS'contains(app)'
p2627
I00
sS'contains(replac)'
p2628
I00
sS'contains(status)'
p2629
I00
sS'contains(web)'
p2630
I00
sS'contains(android)'
p2631
I00
sS'contains(otp)'
p2632
I00
sS'contains(io)'
p2633
I00
sS'contains(cancel)'
p2634
I00
sg30
I11
sS'contains(browser)'
p2635
I00
sS'contains(order)'
p2636
I00
sS'contains(brows)'
p2637
I00
sS'contains(search)'
p2638
I00
sS'contains(refund)'
p2639
I00
sS'contains(password)'
p2640
I00
sVpromotions
p2641
tp2642
a((dp2643
S'contains(window)'
p2644
I00
sS'contains(checkout)'
p2645
I00
sS'contains(site)'
p2646
I00
sS'contains(cart)'
p2647
I00
sS'contains(login)'
p2648
I00
sS'contains(iphon)'
p2649
I00
sS'contains(reset)'
p2650
I00
sS'contains(payment)'
p2651
I00
sS'contains(signup)'
p2652
I00
sS'contains(websit)'
p2653
I00
sS'contains(product)'
p2654
I01
sS'contains(app)'
p2655
I00
sS'contains(replac)'
p2656
I00
sS'contains(status)'
p2657
I00
sS'contains(web)'
p2658
I00
sS'contains(android)'
p2659
I00
sS'contains(otp)'
p2660
I00
sS'contains(io)'
p2661
I00
sS'contains(cancel)'
p2662
I00
sg30
I21
sS'contains(browser)'
p2663
I00
sS'contains(order)'
p2664
I00
sS'contains(brows)'
p2665
I00
sS'contains(search)'
p2666
I00
sS'contains(refund)'
p2667
I00
sS'contains(password)'
p2668
I00
sVapp
p2669
tp2670
a((dp2671
S'contains(window)'
p2672
I00
sS'contains(checkout)'
p2673
I00
sS'contains(site)'
p2674
I00
sS'contains(cart)'
p2675
I00
sS'contains(login)'
p2676
I00
sS'contains(iphon)'
p2677
I00
sS'contains(reset)'
p2678
I00
sS'contains(payment)'
p2679
I00
sS'contains(signup)'
p2680
I00
sS'contains(websit)'
p2681
I00
sS'contains(product)'
p2682
I00
sS'contains(app)'
p2683
I00
sS'contains(replac)'
p2684
I00
sS'contains(status)'
p2685
I01
sS'contains(web)'
p2686
I00
sS'contains(android)'
p2687
I00
sS'contains(otp)'
p2688
I00
sS'contains(io)'
p2689
I00
sS'contains(cancel)'
p2690
I00
sg30
I17
sS'contains(browser)'
p2691
I00
sS'contains(order)'
p2692
I00
sS'contains(brows)'
p2693
I00
sS'contains(search)'
p2694
I00
sS'contains(refund)'
p2695
I00
sS'contains(password)'
p2696
I00
sVself_serve
p2697
tp2698
a((dp2699
S'contains(window)'
p2700
I00
sS'contains(checkout)'
p2701
I00
sS'contains(site)'
p2702
I00
sS'contains(cart)'
p2703
I00
sS'contains(login)'
p2704
I00
sS'contains(iphon)'
p2705
I00
sS'contains(reset)'
p2706
I00
sS'contains(payment)'
p2707
I00
sS'contains(signup)'
p2708
I00
sS'contains(websit)'
p2709
I00
sS'contains(product)'
p2710
I00
sS'contains(app)'
p2711
I00
sS'contains(replac)'
p2712
I00
sS'contains(status)'
p2713
I00
sS'contains(web)'
p2714
I00
sS'contains(android)'
p2715
I00
sS'contains(otp)'
p2716
I00
sS'contains(io)'
p2717
I00
sS'contains(cancel)'
p2718
I00
sg30
I12
sS'contains(browser)'
p2719
I00
sS'contains(order)'
p2720
I00
sS'contains(brows)'
p2721
I00
sS'contains(search)'
p2722
I00
sS'contains(refund)'
p2723
I00
sS'contains(password)'
p2724
I00
sVgeneral
p2725
tp2726
a((dp2727
S'contains(window)'
p2728
I00
sS'contains(checkout)'
p2729
I00
sS'contains(site)'
p2730
I00
sS'contains(cart)'
p2731
I00
sS'contains(login)'
p2732
I00
sS'contains(iphon)'
p2733
I00
sS'contains(reset)'
p2734
I00
sS'contains(payment)'
p2735
I00
sS'contains(signup)'
p2736
I00
sS'contains(websit)'
p2737
I00
sS'contains(product)'
p2738
I00
sS'contains(app)'
p2739
I00
sS'contains(replac)'
p2740
I00
sS'contains(status)'
p2741
I00
sS'contains(web)'
p2742
I00
sS'contains(android)'
p2743
I00
sS'contains(otp)'
p2744
I00
sS'contains(io)'
p2745
I00
sS'contains(cancel)'
p2746
I00
sg30
I19
sS'contains(browser)'
p2747
I00
sS'contains(order)'
p2748
I00
sS'contains(brows)'
p2749
I00
sS'contains(search)'
p2750
I00
sS'contains(refund)'
p2751
I00
sS'contains(password)'
p2752
I00
sVgeneral
p2753
tp2754
a((dp2755
S'contains(window)'
p2756
I00
sS'contains(checkout)'
p2757
I00
sS'contains(site)'
p2758
I00
sS'contains(cart)'
p2759
I00
sS'contains(login)'
p2760
I00
sS'contains(iphon)'
p2761
I00
sS'contains(reset)'
p2762
I00
sS'contains(payment)'
p2763
I00
sS'contains(signup)'
p2764
I00
sS'contains(websit)'
p2765
I00
sS'contains(product)'
p2766
I00
sS'contains(app)'
p2767
I00
sS'contains(replac)'
p2768
I00
sS'contains(status)'
p2769
I00
sS'contains(web)'
p2770
I00
sS'contains(android)'
p2771
I00
sS'contains(otp)'
p2772
I00
sS'contains(io)'
p2773
I00
sS'contains(cancel)'
p2774
I00
sg30
I9
sS'contains(browser)'
p2775
I00
sS'contains(order)'
p2776
I00
sS'contains(brows)'
p2777
I00
sS'contains(search)'
p2778
I00
sS'contains(refund)'
p2779
I00
sS'contains(password)'
p2780
I00
sVgeneral
p2781
tp2782
a((dp2783
S'contains(window)'
p2784
I00
sS'contains(checkout)'
p2785
I00
sS'contains(site)'
p2786
I00
sS'contains(cart)'
p2787
I00
sS'contains(login)'
p2788
I00
sS'contains(iphon)'
p2789
I00
sS'contains(reset)'
p2790
I00
sS'contains(payment)'
p2791
I00
sS'contains(signup)'
p2792
I00
sS'contains(websit)'
p2793
I00
sS'contains(product)'
p2794
I01
sS'contains(app)'
p2795
I00
sS'contains(replac)'
p2796
I00
sS'contains(status)'
p2797
I00
sS'contains(web)'
p2798
I00
sS'contains(android)'
p2799
I00
sS'contains(otp)'
p2800
I00
sS'contains(io)'
p2801
I00
sS'contains(cancel)'
p2802
I00
sg30
I18
sS'contains(browser)'
p2803
I00
sS'contains(order)'
p2804
I01
sS'contains(brows)'
p2805
I00
sS'contains(search)'
p2806
I00
sS'contains(refund)'
p2807
I00
sS'contains(password)'
p2808
I00
sVwarehouse
p2809
tp2810
a((dp2811
S'contains(window)'
p2812
I00
sS'contains(checkout)'
p2813
I00
sS'contains(site)'
p2814
I00
sS'contains(cart)'
p2815
I00
sS'contains(login)'
p2816
I00
sS'contains(iphon)'
p2817
I00
sS'contains(reset)'
p2818
I00
sS'contains(payment)'
p2819
I00
sS'contains(signup)'
p2820
I00
sS'contains(websit)'
p2821
I00
sS'contains(product)'
p2822
I00
sS'contains(app)'
p2823
I00
sS'contains(replac)'
p2824
I00
sS'contains(status)'
p2825
I00
sS'contains(web)'
p2826
I00
sS'contains(android)'
p2827
I00
sS'contains(otp)'
p2828
I00
sS'contains(io)'
p2829
I00
sS'contains(cancel)'
p2830
I01
sg30
I22
sS'contains(browser)'
p2831
I00
sS'contains(order)'
p2832
I00
sS'contains(brows)'
p2833
I00
sS'contains(search)'
p2834
I00
sS'contains(refund)'
p2835
I00
sS'contains(password)'
p2836
I00
sVsupply_chain
p2837
tp2838
a((dp2839
S'contains(window)'
p2840
I00
sS'contains(checkout)'
p2841
I00
sS'contains(site)'
p2842
I00
sS'contains(cart)'
p2843
I00
sS'contains(login)'
p2844
I00
sS'contains(iphon)'
p2845
I00
sS'contains(reset)'
p2846
I00
sS'contains(payment)'
p2847
I00
sS'contains(signup)'
p2848
I00
sS'contains(websit)'
p2849
I00
sS'contains(product)'
p2850
I00
sS'contains(app)'
p2851
I00
sS'contains(replac)'
p2852
I00
sS'contains(status)'
p2853
I00
sS'contains(web)'
p2854
I00
sS'contains(android)'
p2855
I00
sS'contains(otp)'
p2856
I00
sS'contains(io)'
p2857
I00
sS'contains(cancel)'
p2858
I00
sg30
I26
sS'contains(browser)'
p2859
I00
sS'contains(order)'
p2860
I01
sS'contains(brows)'
p2861
I00
sS'contains(search)'
p2862
I00
sS'contains(refund)'
p2863
I00
sS'contains(password)'
p2864
I00
sVsupply_chain
p2865
tp2866
a((dp2867
S'contains(window)'
p2868
I00
sS'contains(checkout)'
p2869
I00
sS'contains(site)'
p2870
I00
sS'contains(cart)'
p2871
I00
sS'contains(login)'
p2872
I00
sS'contains(iphon)'
p2873
I00
sS'contains(reset)'
p2874
I00
sS'contains(payment)'
p2875
I00
sS'contains(signup)'
p2876
I00
sS'contains(websit)'
p2877
I00
sS'contains(product)'
p2878
I00
sS'contains(app)'
p2879
I00
sS'contains(replac)'
p2880
I00
sS'contains(status)'
p2881
I00
sS'contains(web)'
p2882
I00
sS'contains(android)'
p2883
I00
sS'contains(otp)'
p2884
I00
sS'contains(io)'
p2885
I00
sS'contains(cancel)'
p2886
I00
sg30
I10
sS'contains(browser)'
p2887
I00
sS'contains(order)'
p2888
I00
sS'contains(brows)'
p2889
I00
sS'contains(search)'
p2890
I00
sS'contains(refund)'
p2891
I00
sS'contains(password)'
p2892
I00
sVgeneral
p2893
tp2894
a((dp2895
S'contains(window)'
p2896
I00
sS'contains(checkout)'
p2897
I00
sS'contains(site)'
p2898
I00
sS'contains(cart)'
p2899
I00
sS'contains(login)'
p2900
I00
sS'contains(iphon)'
p2901
I00
sS'contains(reset)'
p2902
I00
sS'contains(payment)'
p2903
I00
sS'contains(signup)'
p2904
I00
sS'contains(websit)'
p2905
I00
sS'contains(product)'
p2906
I00
sS'contains(app)'
p2907
I00
sS'contains(replac)'
p2908
I00
sS'contains(status)'
p2909
I00
sS'contains(web)'
p2910
I00
sS'contains(android)'
p2911
I00
sS'contains(otp)'
p2912
I00
sS'contains(io)'
p2913
I00
sS'contains(cancel)'
p2914
I00
sg30
I22
sS'contains(browser)'
p2915
I00
sS'contains(order)'
p2916
I00
sS'contains(brows)'
p2917
I00
sS'contains(search)'
p2918
I00
sS'contains(refund)'
p2919
I00
sS'contains(password)'
p2920
I00
sVsupply_chain
p2921
tp2922
asS'train_set'
p2923
(lp2924
(VDear @Flipkart @flipkartsupport have to cancel order ID OD302888450497262000 and OD302792599390028800...
p2925
g37
tp2926
a(VSurely @Flipkart  and @myntra  can do much better than sending out apology letters. Learn something from @amazonIN
p2927
g65
tp2928
a(VDear @Flipkart,if I've placed an order &amp; tat product has a freebie,y can't u make sure that both reach me at once? Y send d freebie first?
p2929
g93
tp2930
a(VHey @Flipkart, if a product is missing the MRP on its package, do I just take your word for it on the price or discount?
p2931
g121
tp2932
a(VIs it that now most of the books not sold thru WS-Retail and the flipkart first customers really suffer, @Flipkart @flipkartsupport ?
p2933
g149
tp2934
a(VDon't know why I choose @flipkartsupport  . single complaint not handled by them almost a month passed.
p2935
g177
tp2936
a(VDear @Flipkart Whats the issue? http://t.co/hG1XvDe3fW
p2937
g205
tp2938
a(V. @Flipkart why do you need access to sms and contacts in new android app update?
p2939
g233
tp2940
a(VHahaha. The Microsoft way of managing apps.  Surely you must be joking @_sachinbansal @flipkartsupport http://t.co/CQ1E6laEHK
p2941
g261
tp2942
a(VMy ordeal with @flipkart @flipkartsupport continues. Seems they don't have any control on their partners &amp; can't get the TV installed :(
p2943
g289
tp2944
a(Vso @Flipkart till when will this continue http://t.co/sNDoDgqxFG #Disgusting @snapdeal @makemytrip @amazon anything to add?
p2945
g317
tp2946
a(VHi @Flipkart have some shame to loot the people!! https://t.co/ogNR98e44E
p2947
g345
tp2948
a(VTOI - @flipkart 'caught' offering fake discount  http://t.co/2xytTI52sd via@timesofindia
p2949
g373
tp2950
a(VTo the idiots blaming @Flipkart for inflated MRP fiasco - https://t.co/hsO5HR01xY
p2951
g401
tp2952
a(VOD102951735999271800 haven't received by invoice ... please send my invoice @Flipkart
p2953
g429
tp2954
a(V#omg @Flipkart is this what your 'sale' really is? https://t.co/TjxFCnLN8S
p2955
g457
tp2956
a(VMy gift coupons are starting frm 6 n none of them wer applicable for multiple vendor orders. @Flipkart @AshwiniDodani http://t.co/1s4fH9FQc8
p2957
g485
tp2958
a(VHey @Flipkart , that categories bar below search bar is so irritating in the desktop website. When you move cursor after searching 1/2
p2959
g513
tp2960
a(VDear @Flipkart , Your app is a disaster. Lying about products &amp; prices wont get you anywhere. No wonder you are losing the e-com battle.
p2961
g541
tp2962
a(V...@Flipkart Fucking bullshit service.Ordered 5 days ago but not received. #flipcart_is_flopkart #badservice #ordered1sttime #nottoordragain
p2963
g569
tp2964
a(VOD002940315675027500 @Flipkart @flipkartsupport Pathetic service with equally pathetic product.. no exchange no refund no reply
p2965
g597
tp2966
a(VLook at dis @Flipkart is making fool of us!! http://t.co/WM7MVbjp8D Shame Shame!! #MaggiRecalled #AapKaCM #BengalWithRG DDLJ Pic 1 Pluto
p2967
g625
tp2968
a(VDear @Flipkart  Whenever v think of online shopping v think of ur brand. Dis incident damage customers trust. #reply http://t.co/hqMGypx12Q
p2969
g653
tp2970
a(VWanted to check price of phones online. Could see @amazonIN prices but not @Flipkart. Sorry FK I'm not gonna download an app just for this.
p2971
g681
tp2972
a(VDear @flipkartsupport, Why are you fooling us? What do you want to achieve by doing this Fraud ? CC @Flipkart http://t.co/MpXJdyFanH
p2973
g709
tp2974
a(VDear @Flipkart Thank you, I will never buy from you again! Such pathetic customer service!
p2975
g737
tp2976
a(VDear @Flipkart &amp; @myntra, thanks for letting me know my orders will b delivered today. But sending me the same msg 30 times is too much, no?
p2977
g765
tp2978
a(V.@Flipkart this doesn't surprise me at all. Had terrible experiences with Flipkart in the past https://t.co/iio0kp9cck
p2979
g793
tp2980
a(VLooks like @flipkart delivered the wrong product... http://t.co/uST698ou06 http://t.co/xK0EeARRVK
p2981
g821
tp2982
a(VHow so effing stupid of @flipkart to convert itself into just mobile app// but not hving app for BlackBerry.... morons of highest order
p2983
g849
tp2984
a(VSuch pathetic experience with @Flipkart @flipkartsupport. TV delivered on 9thMay still installation not done inspite of daily followup #fail
p2985
g877
tp2986
a(VU r an online store luking to sell electronics, b prepared 2 refund for substandard products. Give my money back @Flipkart @flipkartsupport
p2987
g905
tp2988
a(Vhttp://t.co/W1upPlCwRu Wtf is this ? @Flipkart #Flipkart #flipkartfools #flipkartbluff
p2989
g933
tp2990
a(VThis is not good for you @Flipkart #DontLoseYourCustomers  http://t.co/sHJx2EqEsG
p2991
g961
tp2992
a(VThere's no difference in service for a first timer or #flipkartfirst @Flipkart #cancelling #subscription #annoyed with the @flipkartsupport
p2993
g989
tp2994
a(V.@Flipkart 'caught' offering fake discount http://t.co/AAGnpBF2J4 http://t.co/HBnaqRM0ZS
p2995
g1017
tp2996
a(VSuccessfully added my Mi 4i to cart, but not able to place my order @Flipkart
p2997
g1045
tp2998
a(VMake up your mind, @Flipkart @flipkartsupport - alcohol or no alcohol? http://t.co/7EYu2ZDdMd
p2999
g1073
tp3000
a(VBought #VU LED from @Flipkart @flipkartsupport the guy came for installation but the product refused to start.. no reply from anyone
p3001
g1101
tp3002
a(VSeriously @flipkart @flipkartsupport is screwing me over. If you can't deliver a parcel in time you should have informed before.
p3003
g1129
tp3004
a(Vwhat about sagu, @flipkartsupport? #LOL  https://t.co/Z2Jv7lZL0C
p3005
g1157
tp3006
a(V24 Hours after this Wrong Price listing going viral on Facebook, no fix from @flipkart http://t.co/rHrnqMSs6T http://t.co/Y6JUX77Qty
p3007
g1185
tp3008
a(VShame on u @Flipkart  @_sachinbansal  @binnybansal don\u2019t fool ppl wid #AbHarWishHogiPoori truth is #AbHarWishRahegiAdhoori u ppl r #Flopkart
p3009
g1213
tp3010
a(V.@flipkart you guys hit a new low every time! Pathetic service,clueless cust care,can't wait to see u go out of business.
p3011
g1241
tp3012
a(VWhat happened to @Flipkart logo font.??!!!! Please revert to the original one...Please Please... @flipkart_tech @flipkartsupport
p3013
g1269
tp3014
a(Vwhy do you have a 30 day replacement guarantee if you are not willing to replace a defective phone. @flipkartsupport @Flipkart
p3015
g1297
tp3016
a(VHey @Flipkart let me decide if I want to save my card details on your site. Don't force me to do that. Its annoying!! :/
p3017
g1325
tp3018
a(VOnline Looters don't mind your words until bcm #Maggi @spicy_words Reality of discounts @Flipkart you are Fraudkart! http://t.co/oRGxlgc3VE"
p3019
g1353
tp3020
a(VAvoid @flipkart for at least things like clothes and perfumes @ShivAroor
p3021
g1381
tp3022
a(VWTF @Flipkart??? Who gives a fish about your dispatch messages at 2.00am? http://t.co/aHw84csh1g
p3023
g1409
tp3024
a(VIs it even legal to check those 'save card details' checkboxes by default? If yes, why? @Flipkart @amazonIN @snapdeal @Airtel_Presence
p3025
g1437
tp3026
a(VMy friend @Flipkart why you canceling my order always i need to have that headphone please stop canceling my order (3 times of canceling) y?
p3027
g1465
tp3028
a(VHi @flipkartsupport, how do I turn-off in app notifications?
p3029
g1493
tp3030
a(VDear @Flipkart can you explain this? @flipkartsupport http://t.co/paS8oH27cO
p3031
g1521
tp3032
a(VDoesn't not delivering your ordering amount for a refund.Pay Up @Flipkart Refund 4 what wont deliver OD302831114196353800 #FlipkartPayUp
p3033
g1549
tp3034
a(VAnd since @flipkart moronic leader hv not had app for blackberry switching my purchases to @amazon which has blackberry app
p3035
g1577
tp3036
a(VNo one can beat @Flipkart in giving fake discount, thanks @akshaykanitkar :)   https://t.co/RNpN7i8Jcv
p3037
g1605
tp3038
a(V.@Flipkart 'caught' offering fake discount http://t.co/4z95MaEJjM
p3039
g1633
tp3040
a(VCant believe even a @Flipkart advantage product is being delayed to pack &amp; ship for no valid reason!!
p3041
g1661
tp3042
a(VYou suck @Flipkart #bitch   Flipkart 'caught' offering fake discount http://t.co/oxJPglsetB via @timesofindia
p3043
g1689
tp3044
a(VFeel cheated by @_sachinbansal &amp; @flipkart. Want a refund for a substandard product but not allowed as per company policy! #ChutiyaBanaya
p3045
g1717
tp3046
a(V#wtf is this @Flipkart can u please explain ? http://t.co/hsTpWXLEdH
p3047
g1745
tp3048
a(VHey @Flipkart Nahi ho rahi meri wish poori. Unable 2 buy http://t.co/xecyCo28zE 4 any pincode of Delhi~NCR. #AbHarWishHogiPoori #Fail
p3049
g1773
tp3050
a(VDon't know how long...  Getting shortly shortly message since the last 2 hours.  How poor? @flipkartsupport  No call back yet?
p3051
g1801
tp3052
a(VWhen I am waiting for the shipment to arrive @flipkart @flipkartsupport calls and says it will be escalated. Pathetic.
p3053
g1829
tp3054
a(VI had to replace my Mi3 thrice coz of poor quality control of @xiaomi products. this time @Flipkart doesn't even want to replace them.
p3055
g1857
tp3056
a(VPlease contact me @flipkartsupport   I am a flipkart first customer.  Your app helpfully says my ac is inactive
p3057
g1885
tp3058
a(VShipment misrouted as per @flipkart . Found out myself. @flipkartsupport no harm in letting me know this?. http://t.co/HfOTTCWHeo
p3059
g1913
tp3060
a(V42" UHD @flipkartsupport, delivered on time, bt still waiting 4 installation. Pathetic service from @Micromax_Mobile http://t.co/xGlRamk1pb
p3061
g1941
tp3062
a(V5 days be4 I placed lenova a6000+ mobile but still now I didn't get my mobile@Flipkart@flipkartsupport I m rs500 paid #flipkart 1st customer
p3063
g1969
tp3064
a(VI had always trusted @Flipkart  Hope this is some error. If this is intentional, then it is too bad  https://t.co/5HRvwLb7Jm
p3065
g1997
tp3066
a(VHorrible service from @Flipkart . Unbelievable experience. Hater count increases by 1.
p3067
g2025
tp3068
a(VTrying to order a gift for a friend @Flipkart and there is no option to expedite delivery :(
p3069
g2053
tp3070
a(VThe @Flipkart TVC is a copy paste of @AxisBank's TVC last yr. Same theme, same voiceover, but that had more logic. #advertising #creativity
p3071
g2081
tp3072
a(V#Flipkart or it's seller, Doesn't really matter! "@Flipkart gets caught trying to raise MRP" http://t.co/RdRUJO25tA http://t.co/Kq5fWOOQW6
p3073
g2109
tp3074
a(VSo what do you have to say about fake discounts @Flipkart @flipkartsupport ? Nice way to fool innocent customers! http://t.co/NUYt44l6zq
p3075
g2137
tp3076
a(VOrdered 3 items via @Flipkart out of which 2 got cancelled because the seller didn't have them in stock. Another 7 days for refund they say.
p3077
g2165
tp3078
a(VClosing down #website in order to promote app-based purchase had been suicidal move by e-commerce giants @Flipkart @myntra
p3079
g2193
tp3080
a(VPlus I didnt get courier Company's detail or number of delivery guy. Been regular customer bt this is pathetic service! @Flipkart
p3081
g2221
tp3082
a(VEven after agreeing to refund, no one came to collect Plz take it back and refund my money @Flipkart gave me duplicate headphones
p3083
g2249
tp3084
a(VDear @flipkartsupport , can you please explain what's happening out here ? http://t.co/N38htX9A7q
p3085
g2277
tp3086
a(VPissed off with the flipkart website please fix it, its not working at 512kbps mtnl network @Flipkart @flipkart_tech
p3087
g2305
tp3088
a(VFlipkart 'caught' offering fake discount..http://t.co/iBNiz5U644 @Flipkart
p3089
g2333
tp3090
a(VDear @Flipkart n @amazon on #WorldEnvironmentDay can you find alternative for ur cardboard packaging, less paper and plastic please?
p3091
g2361
tp3092
a(VMost pathetic service by @Flipkart ... 3rd time they have cancelled my order after accepting it..
p3093
g2389
tp3094
a(VWhy does the @Flipkart app need access to Contacts and SMS?
p3095
g2417
tp3096
a(VWhy is @Flipkart discontinuing @facebook login? What's the catch? #productmanagement #ecommerce #startups http://t.co/DpARTI6lrM
p3097
g2445
tp3098
a(VDear @flipkartsupport, I made a mistake by ordering AC from @Flipkart. It is installed but remote is not working from the very next day. +
p3099
g2473
tp3100
a(VNeither return my money nor change the product @flipkartsupport  feel me frustrated and disappointed from e-commerce sites.
p3101
g2501
tp3102
a(VCome on! This is a measly excuse for an article. You're just picking on @Flipkart . http://t.co/iRvy5x64XB @logicalindians
p3103
g2529
tp3104
a(VMonsoon is just like @Flipkart deliveries, it never comes soon.
p3105
g2557
tp3106
a(VHow @Flipkart is making public Chut!y@ http://t.co/e7mMIztScv Sorry @Flipkart you are not smarter than public
p3107
g2585
tp3108
a(V.@Flipkart Ordered 3 products and delivery dude says he couldn't find my house! I've bought online about 8 times, get in touch with me ASAP!
p3109
g2613
tp3110
a(Vi am liking it! :-) @Flipkart 'caught' offering fake discount http://t.co/cFKZvbtmBH
p3111
g2641
tp3112
a(VI was looking for some product on my Tab, but @Flipkart was forcing me to install the app. Finally! Thank you @amazonIN
p3113
g2669
tp3114
a(VHi @Flipkart, Can you please let me know the status of the following orders. OD302949813576731001 OD302949813576731002  Thanks !
p3115
g2697
tp3116
a(VDont u own an explanation for this? http://t.co/4DGHqvk99A @_sachinbansal @Flipkart @flipkartsupport  #flipkart
p3117
g2725
tp3118
a(VRequest you all not to buy any thing from @flipkartsupport  else you have to regret for loosing your money and time
p3119
g2753
tp3120
a(VHow @Flipkart sell things  Have some ethics atleast http://t.co/jnlWd5ixMx
p3121
g2781
tp3122
a(VVery disappointed with @Flipkart ordered two products as displayed and got something totally different. Not shopping here anymore!
p3123
g2809
tp3124
a(VWhere is my order# OD002951871222117800 @Flipkart @flipkartsupport ? Should I cancel it?  It was supposed to be delivered by 30th May 2015.
p3125
g2837
tp3126
a(VI ordered something from @Flipkart nd when the guy came to deliver, asked him to wait for 5 mins as I was on my way.He said "no".Gr8 service
p3127
g2865
tp3128
a(VBut how can I if there's no option related @flipkartsupport
p3129
g2893
tp3130
a(VYou are taking 15 days to deliver a mobile cover, seriously? @flipkartsupport plz inform ur seller that even speed post delivers faster.
p3131
g2921
tp3132
asS'feature_extractor'
p3133
c__main__
get_features
p3134
sb.